ARM GAS  C:\Users\geehy\AppData\Local\Temp\ccqa7o7c.s 			page 1


   1              		.cpu cortex-m3
   2              		.arch armv7-m
   3              		.fpu softvfp
   4              		.eabi_attribute 20, 1
   5              		.eabi_attribute 21, 1
   6              		.eabi_attribute 23, 3
   7              		.eabi_attribute 24, 1
   8              		.eabi_attribute 25, 1
   9              		.eabi_attribute 26, 1
  10              		.eabi_attribute 30, 1
  11              		.eabi_attribute 34, 1
  12              		.eabi_attribute 18, 4
  13              		.file	"apm32f10x_fmc.c"
  14              		.text
  15              	.Ltext0:
  16              		.cfi_sections	.debug_frame
  17              		.section	.text.FMC_ConfigLatency,"ax",%progbits
  18              		.align	1
  19              		.global	FMC_ConfigLatency
  20              		.syntax unified
  21              		.thumb
  22              		.thumb_func
  24              	FMC_ConfigLatency:
  25              	.LVL0:
  26              	.LFB65:
  27              		.file 1 "Library/APM32F10x_StdPeriphDriver/src/apm32f10x_fmc.c"
   1:Library/APM32F10x_StdPeriphDriver/src/apm32f10x_fmc.c **** /*!
   2:Library/APM32F10x_StdPeriphDriver/src/apm32f10x_fmc.c ****  * @file        apm32f10x_fmc.c
   3:Library/APM32F10x_StdPeriphDriver/src/apm32f10x_fmc.c ****  *
   4:Library/APM32F10x_StdPeriphDriver/src/apm32f10x_fmc.c ****  * @brief       This file provides all the FMC firmware functions
   5:Library/APM32F10x_StdPeriphDriver/src/apm32f10x_fmc.c ****  *
   6:Library/APM32F10x_StdPeriphDriver/src/apm32f10x_fmc.c ****  * @version     V1.0.2
   7:Library/APM32F10x_StdPeriphDriver/src/apm32f10x_fmc.c ****  *
   8:Library/APM32F10x_StdPeriphDriver/src/apm32f10x_fmc.c ****  * @date        2022-01-05
   9:Library/APM32F10x_StdPeriphDriver/src/apm32f10x_fmc.c ****  *
  10:Library/APM32F10x_StdPeriphDriver/src/apm32f10x_fmc.c ****  * @attention
  11:Library/APM32F10x_StdPeriphDriver/src/apm32f10x_fmc.c ****  *
  12:Library/APM32F10x_StdPeriphDriver/src/apm32f10x_fmc.c ****  *  Copyright (C) 2020-2022 Geehy Semiconductor
  13:Library/APM32F10x_StdPeriphDriver/src/apm32f10x_fmc.c ****  *
  14:Library/APM32F10x_StdPeriphDriver/src/apm32f10x_fmc.c ****  *  You may not use this file except in compliance with the
  15:Library/APM32F10x_StdPeriphDriver/src/apm32f10x_fmc.c ****  *  GEEHY COPYRIGHT NOTICE (GEEHY SOFTWARE PACKAGE LICENSE).
  16:Library/APM32F10x_StdPeriphDriver/src/apm32f10x_fmc.c ****  *
  17:Library/APM32F10x_StdPeriphDriver/src/apm32f10x_fmc.c ****  *  The program is only for reference, which is distributed in the hope
  18:Library/APM32F10x_StdPeriphDriver/src/apm32f10x_fmc.c ****  *  that it will be usefull and instructional for customers to develop
  19:Library/APM32F10x_StdPeriphDriver/src/apm32f10x_fmc.c ****  *  their software. Unless required by applicable law or agreed to in
  20:Library/APM32F10x_StdPeriphDriver/src/apm32f10x_fmc.c ****  *  writing, the program is distributed on an "AS IS" BASIS, WITHOUT
  21:Library/APM32F10x_StdPeriphDriver/src/apm32f10x_fmc.c ****  *  ANY WARRANTY OR CONDITIONS OF ANY KIND, either express or implied.
  22:Library/APM32F10x_StdPeriphDriver/src/apm32f10x_fmc.c ****  *  See the GEEHY SOFTWARE PACKAGE LICENSE for the governing permissions
  23:Library/APM32F10x_StdPeriphDriver/src/apm32f10x_fmc.c ****  *  and limitations under the License.
  24:Library/APM32F10x_StdPeriphDriver/src/apm32f10x_fmc.c ****  */
  25:Library/APM32F10x_StdPeriphDriver/src/apm32f10x_fmc.c **** 
  26:Library/APM32F10x_StdPeriphDriver/src/apm32f10x_fmc.c **** #include "apm32f10x_fmc.h"
  27:Library/APM32F10x_StdPeriphDriver/src/apm32f10x_fmc.c **** #include "apm32f10x_rcm.h"
  28:Library/APM32F10x_StdPeriphDriver/src/apm32f10x_fmc.c **** 
  29:Library/APM32F10x_StdPeriphDriver/src/apm32f10x_fmc.c **** /** @addtogroup Peripherals_Library Standard Peripheral Library
  30:Library/APM32F10x_StdPeriphDriver/src/apm32f10x_fmc.c ****   @{
  31:Library/APM32F10x_StdPeriphDriver/src/apm32f10x_fmc.c **** */
ARM GAS  C:\Users\geehy\AppData\Local\Temp\ccqa7o7c.s 			page 2


  32:Library/APM32F10x_StdPeriphDriver/src/apm32f10x_fmc.c **** 
  33:Library/APM32F10x_StdPeriphDriver/src/apm32f10x_fmc.c **** /** @addtogroup FMC_Driver FMC Driver
  34:Library/APM32F10x_StdPeriphDriver/src/apm32f10x_fmc.c ****   @{
  35:Library/APM32F10x_StdPeriphDriver/src/apm32f10x_fmc.c **** */
  36:Library/APM32F10x_StdPeriphDriver/src/apm32f10x_fmc.c **** 
  37:Library/APM32F10x_StdPeriphDriver/src/apm32f10x_fmc.c **** /** @addtogroup FMC_Fuctions Fuctions
  38:Library/APM32F10x_StdPeriphDriver/src/apm32f10x_fmc.c ****   @{
  39:Library/APM32F10x_StdPeriphDriver/src/apm32f10x_fmc.c **** */
  40:Library/APM32F10x_StdPeriphDriver/src/apm32f10x_fmc.c **** 
  41:Library/APM32F10x_StdPeriphDriver/src/apm32f10x_fmc.c **** /*!
  42:Library/APM32F10x_StdPeriphDriver/src/apm32f10x_fmc.c ****  * @brief     Configs the code latency value.
  43:Library/APM32F10x_StdPeriphDriver/src/apm32f10x_fmc.c ****  *
  44:Library/APM32F10x_StdPeriphDriver/src/apm32f10x_fmc.c ****  * @param     latency: the FMC Latency value.
  45:Library/APM32F10x_StdPeriphDriver/src/apm32f10x_fmc.c ****  *
  46:Library/APM32F10x_StdPeriphDriver/src/apm32f10x_fmc.c ****  * @retval    None
  47:Library/APM32F10x_StdPeriphDriver/src/apm32f10x_fmc.c ****  */
  48:Library/APM32F10x_StdPeriphDriver/src/apm32f10x_fmc.c **** void FMC_ConfigLatency(FMC_LATENCY_T latency)
  49:Library/APM32F10x_StdPeriphDriver/src/apm32f10x_fmc.c **** {
  28              		.loc 1 49 1 view -0
  29              		.cfi_startproc
  30              		@ args = 0, pretend = 0, frame = 0
  31              		@ frame_needed = 0, uses_anonymous_args = 0
  32              		@ link register save eliminated.
  50:Library/APM32F10x_StdPeriphDriver/src/apm32f10x_fmc.c ****     FMC->CTRL1_B.WS = latency;
  33              		.loc 1 50 5 view .LVU1
  34              		.loc 1 50 21 is_stmt 0 view .LVU2
  35 0000 024B     		ldr	r3, .L2
  36 0002 1A68     		ldr	r2, [r3]
  37 0004 60F30202 		bfi	r2, r0, #0, #3
  38 0008 1A60     		str	r2, [r3]
  51:Library/APM32F10x_StdPeriphDriver/src/apm32f10x_fmc.c **** }
  39              		.loc 1 51 1 view .LVU3
  40 000a 7047     		bx	lr
  41              	.L3:
  42              		.align	2
  43              	.L2:
  44 000c 00200240 		.word	1073881088
  45              		.cfi_endproc
  46              	.LFE65:
  48              		.section	.text.FMC_EnableHalfCycleAccess,"ax",%progbits
  49              		.align	1
  50              		.global	FMC_EnableHalfCycleAccess
  51              		.syntax unified
  52              		.thumb
  53              		.thumb_func
  55              	FMC_EnableHalfCycleAccess:
  56              	.LFB66:
  52:Library/APM32F10x_StdPeriphDriver/src/apm32f10x_fmc.c **** 
  53:Library/APM32F10x_StdPeriphDriver/src/apm32f10x_fmc.c **** /*!
  54:Library/APM32F10x_StdPeriphDriver/src/apm32f10x_fmc.c ****  * @brief     Enables the Half cycle flash access.
  55:Library/APM32F10x_StdPeriphDriver/src/apm32f10x_fmc.c ****  *
  56:Library/APM32F10x_StdPeriphDriver/src/apm32f10x_fmc.c ****  * @param     None
  57:Library/APM32F10x_StdPeriphDriver/src/apm32f10x_fmc.c ****  *
  58:Library/APM32F10x_StdPeriphDriver/src/apm32f10x_fmc.c ****  * @retval    None
  59:Library/APM32F10x_StdPeriphDriver/src/apm32f10x_fmc.c ****  */
  60:Library/APM32F10x_StdPeriphDriver/src/apm32f10x_fmc.c **** void FMC_EnableHalfCycleAccess(void)
  61:Library/APM32F10x_StdPeriphDriver/src/apm32f10x_fmc.c **** {
ARM GAS  C:\Users\geehy\AppData\Local\Temp\ccqa7o7c.s 			page 3


  57              		.loc 1 61 1 is_stmt 1 view -0
  58              		.cfi_startproc
  59              		@ args = 0, pretend = 0, frame = 0
  60              		@ frame_needed = 0, uses_anonymous_args = 0
  61              		@ link register save eliminated.
  62:Library/APM32F10x_StdPeriphDriver/src/apm32f10x_fmc.c ****     FMC->CTRL1_B.HCAEN = BIT_SET;
  62              		.loc 1 62 5 view .LVU5
  63              		.loc 1 62 24 is_stmt 0 view .LVU6
  64 0000 024A     		ldr	r2, .L5
  65 0002 1368     		ldr	r3, [r2]
  66 0004 43F00803 		orr	r3, r3, #8
  67 0008 1360     		str	r3, [r2]
  63:Library/APM32F10x_StdPeriphDriver/src/apm32f10x_fmc.c **** }
  68              		.loc 1 63 1 view .LVU7
  69 000a 7047     		bx	lr
  70              	.L6:
  71              		.align	2
  72              	.L5:
  73 000c 00200240 		.word	1073881088
  74              		.cfi_endproc
  75              	.LFE66:
  77              		.section	.text.FMC_DisableHalfCycleAccess,"ax",%progbits
  78              		.align	1
  79              		.global	FMC_DisableHalfCycleAccess
  80              		.syntax unified
  81              		.thumb
  82              		.thumb_func
  84              	FMC_DisableHalfCycleAccess:
  85              	.LFB67:
  64:Library/APM32F10x_StdPeriphDriver/src/apm32f10x_fmc.c **** 
  65:Library/APM32F10x_StdPeriphDriver/src/apm32f10x_fmc.c **** /*!
  66:Library/APM32F10x_StdPeriphDriver/src/apm32f10x_fmc.c ****  * @brief     Disable the Half cycle flash access.
  67:Library/APM32F10x_StdPeriphDriver/src/apm32f10x_fmc.c ****  *
  68:Library/APM32F10x_StdPeriphDriver/src/apm32f10x_fmc.c ****  * @param     None
  69:Library/APM32F10x_StdPeriphDriver/src/apm32f10x_fmc.c ****  *
  70:Library/APM32F10x_StdPeriphDriver/src/apm32f10x_fmc.c ****  * @retval    None
  71:Library/APM32F10x_StdPeriphDriver/src/apm32f10x_fmc.c ****  */
  72:Library/APM32F10x_StdPeriphDriver/src/apm32f10x_fmc.c **** void FMC_DisableHalfCycleAccess(void)
  73:Library/APM32F10x_StdPeriphDriver/src/apm32f10x_fmc.c **** {
  86              		.loc 1 73 1 is_stmt 1 view -0
  87              		.cfi_startproc
  88              		@ args = 0, pretend = 0, frame = 0
  89              		@ frame_needed = 0, uses_anonymous_args = 0
  90              		@ link register save eliminated.
  74:Library/APM32F10x_StdPeriphDriver/src/apm32f10x_fmc.c ****     FMC->CTRL1_B.HCAEN = BIT_RESET;
  91              		.loc 1 74 5 view .LVU9
  92              		.loc 1 74 24 is_stmt 0 view .LVU10
  93 0000 024B     		ldr	r3, .L8
  94 0002 1A68     		ldr	r2, [r3]
  95 0004 6FF3C302 		bfc	r2, #3, #1
  96 0008 1A60     		str	r2, [r3]
  75:Library/APM32F10x_StdPeriphDriver/src/apm32f10x_fmc.c **** }
  97              		.loc 1 75 1 view .LVU11
  98 000a 7047     		bx	lr
  99              	.L9:
 100              		.align	2
 101              	.L8:
ARM GAS  C:\Users\geehy\AppData\Local\Temp\ccqa7o7c.s 			page 4


 102 000c 00200240 		.word	1073881088
 103              		.cfi_endproc
 104              	.LFE67:
 106              		.section	.text.FMC_EnablePrefetchBuffer,"ax",%progbits
 107              		.align	1
 108              		.global	FMC_EnablePrefetchBuffer
 109              		.syntax unified
 110              		.thumb
 111              		.thumb_func
 113              	FMC_EnablePrefetchBuffer:
 114              	.LFB68:
  76:Library/APM32F10x_StdPeriphDriver/src/apm32f10x_fmc.c **** 
  77:Library/APM32F10x_StdPeriphDriver/src/apm32f10x_fmc.c **** /*!
  78:Library/APM32F10x_StdPeriphDriver/src/apm32f10x_fmc.c ****  * @brief     Enables the Prefetch Buffer.
  79:Library/APM32F10x_StdPeriphDriver/src/apm32f10x_fmc.c ****  *
  80:Library/APM32F10x_StdPeriphDriver/src/apm32f10x_fmc.c ****  * @param     None
  81:Library/APM32F10x_StdPeriphDriver/src/apm32f10x_fmc.c ****  *
  82:Library/APM32F10x_StdPeriphDriver/src/apm32f10x_fmc.c ****  * @retval    None
  83:Library/APM32F10x_StdPeriphDriver/src/apm32f10x_fmc.c ****  */
  84:Library/APM32F10x_StdPeriphDriver/src/apm32f10x_fmc.c **** void FMC_EnablePrefetchBuffer(void)
  85:Library/APM32F10x_StdPeriphDriver/src/apm32f10x_fmc.c **** {
 115              		.loc 1 85 1 is_stmt 1 view -0
 116              		.cfi_startproc
 117              		@ args = 0, pretend = 0, frame = 0
 118              		@ frame_needed = 0, uses_anonymous_args = 0
 119              		@ link register save eliminated.
  86:Library/APM32F10x_StdPeriphDriver/src/apm32f10x_fmc.c ****     FMC->CTRL1_B.PBEN = ENABLE;
 120              		.loc 1 86 5 view .LVU13
 121              		.loc 1 86 23 is_stmt 0 view .LVU14
 122 0000 024A     		ldr	r2, .L11
 123 0002 1368     		ldr	r3, [r2]
 124 0004 43F01003 		orr	r3, r3, #16
 125 0008 1360     		str	r3, [r2]
  87:Library/APM32F10x_StdPeriphDriver/src/apm32f10x_fmc.c **** }
 126              		.loc 1 87 1 view .LVU15
 127 000a 7047     		bx	lr
 128              	.L12:
 129              		.align	2
 130              	.L11:
 131 000c 00200240 		.word	1073881088
 132              		.cfi_endproc
 133              	.LFE68:
 135              		.section	.text.FMC_DisablePrefetchBuffer,"ax",%progbits
 136              		.align	1
 137              		.global	FMC_DisablePrefetchBuffer
 138              		.syntax unified
 139              		.thumb
 140              		.thumb_func
 142              	FMC_DisablePrefetchBuffer:
 143              	.LFB69:
  88:Library/APM32F10x_StdPeriphDriver/src/apm32f10x_fmc.c **** 
  89:Library/APM32F10x_StdPeriphDriver/src/apm32f10x_fmc.c **** /*!
  90:Library/APM32F10x_StdPeriphDriver/src/apm32f10x_fmc.c ****  * @brief     Disables the Prefetch Buffer.
  91:Library/APM32F10x_StdPeriphDriver/src/apm32f10x_fmc.c ****  *
  92:Library/APM32F10x_StdPeriphDriver/src/apm32f10x_fmc.c ****  * @param     None
  93:Library/APM32F10x_StdPeriphDriver/src/apm32f10x_fmc.c ****  *
  94:Library/APM32F10x_StdPeriphDriver/src/apm32f10x_fmc.c ****  * @retval    None
ARM GAS  C:\Users\geehy\AppData\Local\Temp\ccqa7o7c.s 			page 5


  95:Library/APM32F10x_StdPeriphDriver/src/apm32f10x_fmc.c ****  */
  96:Library/APM32F10x_StdPeriphDriver/src/apm32f10x_fmc.c **** void FMC_DisablePrefetchBuffer(void)
  97:Library/APM32F10x_StdPeriphDriver/src/apm32f10x_fmc.c **** {
 144              		.loc 1 97 1 is_stmt 1 view -0
 145              		.cfi_startproc
 146              		@ args = 0, pretend = 0, frame = 0
 147              		@ frame_needed = 0, uses_anonymous_args = 0
 148              		@ link register save eliminated.
  98:Library/APM32F10x_StdPeriphDriver/src/apm32f10x_fmc.c ****     FMC->CTRL1_B.PBEN = DISABLE;
 149              		.loc 1 98 5 view .LVU17
 150              		.loc 1 98 23 is_stmt 0 view .LVU18
 151 0000 024B     		ldr	r3, .L14
 152 0002 1A68     		ldr	r2, [r3]
 153 0004 6FF30412 		bfc	r2, #4, #1
 154 0008 1A60     		str	r2, [r3]
  99:Library/APM32F10x_StdPeriphDriver/src/apm32f10x_fmc.c **** }
 155              		.loc 1 99 1 view .LVU19
 156 000a 7047     		bx	lr
 157              	.L15:
 158              		.align	2
 159              	.L14:
 160 000c 00200240 		.word	1073881088
 161              		.cfi_endproc
 162              	.LFE69:
 164              		.section	.text.FMC_Unlock,"ax",%progbits
 165              		.align	1
 166              		.global	FMC_Unlock
 167              		.syntax unified
 168              		.thumb
 169              		.thumb_func
 171              	FMC_Unlock:
 172              	.LFB70:
 100:Library/APM32F10x_StdPeriphDriver/src/apm32f10x_fmc.c **** 
 101:Library/APM32F10x_StdPeriphDriver/src/apm32f10x_fmc.c **** /*!
 102:Library/APM32F10x_StdPeriphDriver/src/apm32f10x_fmc.c ****  * @brief     Unlocks the FMC Program Erase Controller
 103:Library/APM32F10x_StdPeriphDriver/src/apm32f10x_fmc.c ****  *
 104:Library/APM32F10x_StdPeriphDriver/src/apm32f10x_fmc.c ****  * @param     None
 105:Library/APM32F10x_StdPeriphDriver/src/apm32f10x_fmc.c ****  *
 106:Library/APM32F10x_StdPeriphDriver/src/apm32f10x_fmc.c ****  * @retval    None
 107:Library/APM32F10x_StdPeriphDriver/src/apm32f10x_fmc.c ****  */
 108:Library/APM32F10x_StdPeriphDriver/src/apm32f10x_fmc.c **** void FMC_Unlock(void)
 109:Library/APM32F10x_StdPeriphDriver/src/apm32f10x_fmc.c **** {
 173              		.loc 1 109 1 is_stmt 1 view -0
 174              		.cfi_startproc
 175              		@ args = 0, pretend = 0, frame = 0
 176              		@ frame_needed = 0, uses_anonymous_args = 0
 177              		@ link register save eliminated.
 110:Library/APM32F10x_StdPeriphDriver/src/apm32f10x_fmc.c ****     FMC->KEY = 0x45670123;
 178              		.loc 1 110 5 view .LVU21
 179              		.loc 1 110 14 is_stmt 0 view .LVU22
 180 0000 034B     		ldr	r3, .L17
 181 0002 044A     		ldr	r2, .L17+4
 182 0004 5A60     		str	r2, [r3, #4]
 111:Library/APM32F10x_StdPeriphDriver/src/apm32f10x_fmc.c ****     FMC->KEY = 0xCDEF89AB;
 183              		.loc 1 111 5 is_stmt 1 view .LVU23
 184              		.loc 1 111 14 is_stmt 0 view .LVU24
 185 0006 02F18832 		add	r2, r2, #-2004318072
ARM GAS  C:\Users\geehy\AppData\Local\Temp\ccqa7o7c.s 			page 6


 186 000a 5A60     		str	r2, [r3, #4]
 112:Library/APM32F10x_StdPeriphDriver/src/apm32f10x_fmc.c **** }
 187              		.loc 1 112 1 view .LVU25
 188 000c 7047     		bx	lr
 189              	.L18:
 190 000e 00BF     		.align	2
 191              	.L17:
 192 0010 00200240 		.word	1073881088
 193 0014 23016745 		.word	1164378403
 194              		.cfi_endproc
 195              	.LFE70:
 197              		.section	.text.FMC_Lock,"ax",%progbits
 198              		.align	1
 199              		.global	FMC_Lock
 200              		.syntax unified
 201              		.thumb
 202              		.thumb_func
 204              	FMC_Lock:
 205              	.LFB71:
 113:Library/APM32F10x_StdPeriphDriver/src/apm32f10x_fmc.c **** 
 114:Library/APM32F10x_StdPeriphDriver/src/apm32f10x_fmc.c **** /*!
 115:Library/APM32F10x_StdPeriphDriver/src/apm32f10x_fmc.c ****  * @brief     Locks the FMC Program Erase Controller.
 116:Library/APM32F10x_StdPeriphDriver/src/apm32f10x_fmc.c ****  *
 117:Library/APM32F10x_StdPeriphDriver/src/apm32f10x_fmc.c ****  * @param     None
 118:Library/APM32F10x_StdPeriphDriver/src/apm32f10x_fmc.c ****  *
 119:Library/APM32F10x_StdPeriphDriver/src/apm32f10x_fmc.c ****  * @retval    None
 120:Library/APM32F10x_StdPeriphDriver/src/apm32f10x_fmc.c ****  */
 121:Library/APM32F10x_StdPeriphDriver/src/apm32f10x_fmc.c **** void FMC_Lock(void)
 122:Library/APM32F10x_StdPeriphDriver/src/apm32f10x_fmc.c **** {
 206              		.loc 1 122 1 is_stmt 1 view -0
 207              		.cfi_startproc
 208              		@ args = 0, pretend = 0, frame = 0
 209              		@ frame_needed = 0, uses_anonymous_args = 0
 210              		@ link register save eliminated.
 123:Library/APM32F10x_StdPeriphDriver/src/apm32f10x_fmc.c ****     FMC->CTRL2_B.LOCK = BIT_SET;
 211              		.loc 1 123 5 view .LVU27
 212              		.loc 1 123 23 is_stmt 0 view .LVU28
 213 0000 024A     		ldr	r2, .L20
 214 0002 1369     		ldr	r3, [r2, #16]
 215 0004 43F08003 		orr	r3, r3, #128
 216 0008 1361     		str	r3, [r2, #16]
 124:Library/APM32F10x_StdPeriphDriver/src/apm32f10x_fmc.c **** }
 217              		.loc 1 124 1 view .LVU29
 218 000a 7047     		bx	lr
 219              	.L21:
 220              		.align	2
 221              	.L20:
 222 000c 00200240 		.word	1073881088
 223              		.cfi_endproc
 224              	.LFE71:
 226              		.section	.text.FMC_ReadUserOptionByte,"ax",%progbits
 227              		.align	1
 228              		.global	FMC_ReadUserOptionByte
 229              		.syntax unified
 230              		.thumb
 231              		.thumb_func
 233              	FMC_ReadUserOptionByte:
ARM GAS  C:\Users\geehy\AppData\Local\Temp\ccqa7o7c.s 			page 7


 234              	.LFB82:
 125:Library/APM32F10x_StdPeriphDriver/src/apm32f10x_fmc.c **** 
 126:Library/APM32F10x_StdPeriphDriver/src/apm32f10x_fmc.c **** /*!
 127:Library/APM32F10x_StdPeriphDriver/src/apm32f10x_fmc.c ****  * @brief     Erases a specified FMC page.
 128:Library/APM32F10x_StdPeriphDriver/src/apm32f10x_fmc.c ****  *
 129:Library/APM32F10x_StdPeriphDriver/src/apm32f10x_fmc.c ****  * @param     pageAddr: The page address to be erased.
 130:Library/APM32F10x_StdPeriphDriver/src/apm32f10x_fmc.c ****  *
 131:Library/APM32F10x_StdPeriphDriver/src/apm32f10x_fmc.c ****  * @retval    Returns the flash state.It can be one of value:
 132:Library/APM32F10x_StdPeriphDriver/src/apm32f10x_fmc.c ****  *                 @arg FMC_STATUS_BUSY
 133:Library/APM32F10x_StdPeriphDriver/src/apm32f10x_fmc.c ****  *                 @arg FMC_STATUS_ERROR_PG
 134:Library/APM32F10x_StdPeriphDriver/src/apm32f10x_fmc.c ****  *                 @arg FMC_STATUS_ERROR_WRP
 135:Library/APM32F10x_StdPeriphDriver/src/apm32f10x_fmc.c ****  *                 @arg FMC_STATUS_COMPLETE
 136:Library/APM32F10x_StdPeriphDriver/src/apm32f10x_fmc.c ****  *                 @arg FMC_STATUS_TIMEOUT
 137:Library/APM32F10x_StdPeriphDriver/src/apm32f10x_fmc.c ****  */
 138:Library/APM32F10x_StdPeriphDriver/src/apm32f10x_fmc.c **** FMC_STATUS_T FMC_ErasePage(uint32_t pageAddr)
 139:Library/APM32F10x_StdPeriphDriver/src/apm32f10x_fmc.c **** {
 140:Library/APM32F10x_StdPeriphDriver/src/apm32f10x_fmc.c ****     FMC_STATUS_T status = FMC_STATUS_COMPLETE;
 141:Library/APM32F10x_StdPeriphDriver/src/apm32f10x_fmc.c **** 
 142:Library/APM32F10x_StdPeriphDriver/src/apm32f10x_fmc.c ****     status = FMC_WaitForLastOperation(0x000B0000);
 143:Library/APM32F10x_StdPeriphDriver/src/apm32f10x_fmc.c ****     if(status == FMC_STATUS_COMPLETE)
 144:Library/APM32F10x_StdPeriphDriver/src/apm32f10x_fmc.c ****     {
 145:Library/APM32F10x_StdPeriphDriver/src/apm32f10x_fmc.c ****         FMC->CTRL2_B.PAGEERA = BIT_SET;
 146:Library/APM32F10x_StdPeriphDriver/src/apm32f10x_fmc.c ****         FMC->ADDR = pageAddr;
 147:Library/APM32F10x_StdPeriphDriver/src/apm32f10x_fmc.c ****         FMC->CTRL2_B.STA = BIT_SET;
 148:Library/APM32F10x_StdPeriphDriver/src/apm32f10x_fmc.c **** 
 149:Library/APM32F10x_StdPeriphDriver/src/apm32f10x_fmc.c ****         status = FMC_WaitForLastOperation(0x000B0000);
 150:Library/APM32F10x_StdPeriphDriver/src/apm32f10x_fmc.c ****         FMC->CTRL2_B.PAGEERA = BIT_RESET;
 151:Library/APM32F10x_StdPeriphDriver/src/apm32f10x_fmc.c ****     }
 152:Library/APM32F10x_StdPeriphDriver/src/apm32f10x_fmc.c ****     return status;
 153:Library/APM32F10x_StdPeriphDriver/src/apm32f10x_fmc.c **** }
 154:Library/APM32F10x_StdPeriphDriver/src/apm32f10x_fmc.c **** 
 155:Library/APM32F10x_StdPeriphDriver/src/apm32f10x_fmc.c **** /*!
 156:Library/APM32F10x_StdPeriphDriver/src/apm32f10x_fmc.c ****  * @brief     Erases all FMC pages.
 157:Library/APM32F10x_StdPeriphDriver/src/apm32f10x_fmc.c ****  *
 158:Library/APM32F10x_StdPeriphDriver/src/apm32f10x_fmc.c ****  * @param     None
 159:Library/APM32F10x_StdPeriphDriver/src/apm32f10x_fmc.c ****  *
 160:Library/APM32F10x_StdPeriphDriver/src/apm32f10x_fmc.c ****  * @retval    Returns the flash state.It can be one of value:
 161:Library/APM32F10x_StdPeriphDriver/src/apm32f10x_fmc.c ****  *                 @arg FMC_STATUS_ERROR_PG
 162:Library/APM32F10x_StdPeriphDriver/src/apm32f10x_fmc.c ****  *                 @arg FMC_STATUS_ERROR_WRP
 163:Library/APM32F10x_StdPeriphDriver/src/apm32f10x_fmc.c ****  *                 @arg FMC_STATUS_COMPLETE
 164:Library/APM32F10x_StdPeriphDriver/src/apm32f10x_fmc.c ****  *                 @arg FMC_STATUS_TIMEOUT
 165:Library/APM32F10x_StdPeriphDriver/src/apm32f10x_fmc.c ****  */
 166:Library/APM32F10x_StdPeriphDriver/src/apm32f10x_fmc.c **** FMC_STATUS_T FMC_EraseAllPage(void)
 167:Library/APM32F10x_StdPeriphDriver/src/apm32f10x_fmc.c **** {
 168:Library/APM32F10x_StdPeriphDriver/src/apm32f10x_fmc.c ****     FMC_STATUS_T status = FMC_STATUS_COMPLETE;
 169:Library/APM32F10x_StdPeriphDriver/src/apm32f10x_fmc.c **** 
 170:Library/APM32F10x_StdPeriphDriver/src/apm32f10x_fmc.c ****     status = FMC_WaitForLastOperation(0x000B0000);
 171:Library/APM32F10x_StdPeriphDriver/src/apm32f10x_fmc.c ****     if(status == FMC_STATUS_COMPLETE)
 172:Library/APM32F10x_StdPeriphDriver/src/apm32f10x_fmc.c ****     {
 173:Library/APM32F10x_StdPeriphDriver/src/apm32f10x_fmc.c ****         FMC->CTRL2_B.MASSERA = BIT_SET;
 174:Library/APM32F10x_StdPeriphDriver/src/apm32f10x_fmc.c ****         FMC->CTRL2_B.STA = BIT_SET;
 175:Library/APM32F10x_StdPeriphDriver/src/apm32f10x_fmc.c **** 
 176:Library/APM32F10x_StdPeriphDriver/src/apm32f10x_fmc.c ****         status = FMC_WaitForLastOperation(0x000B0000);
 177:Library/APM32F10x_StdPeriphDriver/src/apm32f10x_fmc.c ****         FMC->CTRL2_B.MASSERA = BIT_RESET;
 178:Library/APM32F10x_StdPeriphDriver/src/apm32f10x_fmc.c ****     }
 179:Library/APM32F10x_StdPeriphDriver/src/apm32f10x_fmc.c ****     return status;
 180:Library/APM32F10x_StdPeriphDriver/src/apm32f10x_fmc.c **** }
ARM GAS  C:\Users\geehy\AppData\Local\Temp\ccqa7o7c.s 			page 8


 181:Library/APM32F10x_StdPeriphDriver/src/apm32f10x_fmc.c **** 
 182:Library/APM32F10x_StdPeriphDriver/src/apm32f10x_fmc.c **** /*!
 183:Library/APM32F10x_StdPeriphDriver/src/apm32f10x_fmc.c ****  * @brief     Erases the FMC option bytes.
 184:Library/APM32F10x_StdPeriphDriver/src/apm32f10x_fmc.c ****  *
 185:Library/APM32F10x_StdPeriphDriver/src/apm32f10x_fmc.c ****  * @param     None
 186:Library/APM32F10x_StdPeriphDriver/src/apm32f10x_fmc.c ****  *
 187:Library/APM32F10x_StdPeriphDriver/src/apm32f10x_fmc.c ****  * @retval    Returns the flash state.It can be one of value:
 188:Library/APM32F10x_StdPeriphDriver/src/apm32f10x_fmc.c ****  *                 @arg FMC_STATUS_ERROR_PG
 189:Library/APM32F10x_StdPeriphDriver/src/apm32f10x_fmc.c ****  *                 @arg FMC_STATUS_ERROR_WRP
 190:Library/APM32F10x_StdPeriphDriver/src/apm32f10x_fmc.c ****  *                 @arg FMC_STATUS_COMPLETE
 191:Library/APM32F10x_StdPeriphDriver/src/apm32f10x_fmc.c ****  *                 @arg FMC_STATUS_TIMEOUT
 192:Library/APM32F10x_StdPeriphDriver/src/apm32f10x_fmc.c ****  */
 193:Library/APM32F10x_StdPeriphDriver/src/apm32f10x_fmc.c **** FMC_STATUS_T FMC_EraseOptionBytes(void)
 194:Library/APM32F10x_StdPeriphDriver/src/apm32f10x_fmc.c **** {
 195:Library/APM32F10x_StdPeriphDriver/src/apm32f10x_fmc.c ****     uint16_t rdtemp = 0x00A5;
 196:Library/APM32F10x_StdPeriphDriver/src/apm32f10x_fmc.c ****     FMC_STATUS_T status = FMC_STATUS_COMPLETE;
 197:Library/APM32F10x_StdPeriphDriver/src/apm32f10x_fmc.c **** 
 198:Library/APM32F10x_StdPeriphDriver/src/apm32f10x_fmc.c ****     if(FMC_GetReadProtectionStatus() != RESET)
 199:Library/APM32F10x_StdPeriphDriver/src/apm32f10x_fmc.c ****     {
 200:Library/APM32F10x_StdPeriphDriver/src/apm32f10x_fmc.c ****         rdtemp = 0x00;
 201:Library/APM32F10x_StdPeriphDriver/src/apm32f10x_fmc.c ****     }
 202:Library/APM32F10x_StdPeriphDriver/src/apm32f10x_fmc.c ****     status = FMC_WaitForLastOperation(0x000B0000);
 203:Library/APM32F10x_StdPeriphDriver/src/apm32f10x_fmc.c ****     if(status == FMC_STATUS_COMPLETE)
 204:Library/APM32F10x_StdPeriphDriver/src/apm32f10x_fmc.c ****     {
 205:Library/APM32F10x_StdPeriphDriver/src/apm32f10x_fmc.c ****         FMC->OBKEY = 0x45670123;
 206:Library/APM32F10x_StdPeriphDriver/src/apm32f10x_fmc.c ****         FMC->OBKEY = 0xCDEF89AB;
 207:Library/APM32F10x_StdPeriphDriver/src/apm32f10x_fmc.c **** 
 208:Library/APM32F10x_StdPeriphDriver/src/apm32f10x_fmc.c ****         FMC->CTRL2_B.OBE = BIT_SET;
 209:Library/APM32F10x_StdPeriphDriver/src/apm32f10x_fmc.c ****         FMC->CTRL2_B.STA = BIT_SET;
 210:Library/APM32F10x_StdPeriphDriver/src/apm32f10x_fmc.c **** 
 211:Library/APM32F10x_StdPeriphDriver/src/apm32f10x_fmc.c ****         status = FMC_WaitForLastOperation(0x000B0000);
 212:Library/APM32F10x_StdPeriphDriver/src/apm32f10x_fmc.c **** 
 213:Library/APM32F10x_StdPeriphDriver/src/apm32f10x_fmc.c ****         if(status == FMC_STATUS_COMPLETE)
 214:Library/APM32F10x_StdPeriphDriver/src/apm32f10x_fmc.c ****         {
 215:Library/APM32F10x_StdPeriphDriver/src/apm32f10x_fmc.c ****             FMC->CTRL2_B.OBE = BIT_RESET;
 216:Library/APM32F10x_StdPeriphDriver/src/apm32f10x_fmc.c ****             FMC->CTRL2_B.OBP = BIT_SET;
 217:Library/APM32F10x_StdPeriphDriver/src/apm32f10x_fmc.c ****             OB->RDP = rdtemp;
 218:Library/APM32F10x_StdPeriphDriver/src/apm32f10x_fmc.c ****             status = FMC_WaitForLastOperation(0x000B0000);
 219:Library/APM32F10x_StdPeriphDriver/src/apm32f10x_fmc.c ****             if(status != FMC_STATUS_TIMEOUT)
 220:Library/APM32F10x_StdPeriphDriver/src/apm32f10x_fmc.c ****             {
 221:Library/APM32F10x_StdPeriphDriver/src/apm32f10x_fmc.c ****                 FMC->CTRL2_B.OBP = BIT_RESET;
 222:Library/APM32F10x_StdPeriphDriver/src/apm32f10x_fmc.c ****             }
 223:Library/APM32F10x_StdPeriphDriver/src/apm32f10x_fmc.c ****         }
 224:Library/APM32F10x_StdPeriphDriver/src/apm32f10x_fmc.c ****         else if(status != FMC_STATUS_TIMEOUT)
 225:Library/APM32F10x_StdPeriphDriver/src/apm32f10x_fmc.c ****         {
 226:Library/APM32F10x_StdPeriphDriver/src/apm32f10x_fmc.c ****             FMC->CTRL2_B.OBP = BIT_RESET;
 227:Library/APM32F10x_StdPeriphDriver/src/apm32f10x_fmc.c ****         }
 228:Library/APM32F10x_StdPeriphDriver/src/apm32f10x_fmc.c ****     }
 229:Library/APM32F10x_StdPeriphDriver/src/apm32f10x_fmc.c ****     return status;
 230:Library/APM32F10x_StdPeriphDriver/src/apm32f10x_fmc.c **** }
 231:Library/APM32F10x_StdPeriphDriver/src/apm32f10x_fmc.c **** 
 232:Library/APM32F10x_StdPeriphDriver/src/apm32f10x_fmc.c **** /*!
 233:Library/APM32F10x_StdPeriphDriver/src/apm32f10x_fmc.c ****  * @brief     Programs a word at a specified address.
 234:Library/APM32F10x_StdPeriphDriver/src/apm32f10x_fmc.c ****  *
 235:Library/APM32F10x_StdPeriphDriver/src/apm32f10x_fmc.c ****  * @param     address:the address to be programmed.
 236:Library/APM32F10x_StdPeriphDriver/src/apm32f10x_fmc.c ****  *
 237:Library/APM32F10x_StdPeriphDriver/src/apm32f10x_fmc.c ****  * @param     data: the data to be programmed.
ARM GAS  C:\Users\geehy\AppData\Local\Temp\ccqa7o7c.s 			page 9


 238:Library/APM32F10x_StdPeriphDriver/src/apm32f10x_fmc.c ****  *
 239:Library/APM32F10x_StdPeriphDriver/src/apm32f10x_fmc.c ****  * @retval    Returns the flash state.It can be one of value:
 240:Library/APM32F10x_StdPeriphDriver/src/apm32f10x_fmc.c ****  *                 @arg FMC_STATUS_ERROR_PG
 241:Library/APM32F10x_StdPeriphDriver/src/apm32f10x_fmc.c ****  *                 @arg FMC_STATUS_ERROR_WRP
 242:Library/APM32F10x_StdPeriphDriver/src/apm32f10x_fmc.c ****  *                 @arg FMC_STATUS_COMPLETE
 243:Library/APM32F10x_StdPeriphDriver/src/apm32f10x_fmc.c ****  *                 @arg FMC_STATUS_TIMEOUT
 244:Library/APM32F10x_StdPeriphDriver/src/apm32f10x_fmc.c ****  */
 245:Library/APM32F10x_StdPeriphDriver/src/apm32f10x_fmc.c **** FMC_STATUS_T FMC_ProgramWord(uint32_t address, uint32_t data)
 246:Library/APM32F10x_StdPeriphDriver/src/apm32f10x_fmc.c **** {
 247:Library/APM32F10x_StdPeriphDriver/src/apm32f10x_fmc.c ****     FMC_STATUS_T status = FMC_STATUS_COMPLETE;
 248:Library/APM32F10x_StdPeriphDriver/src/apm32f10x_fmc.c ****     __IOM uint32_t temp = 0;
 249:Library/APM32F10x_StdPeriphDriver/src/apm32f10x_fmc.c **** 
 250:Library/APM32F10x_StdPeriphDriver/src/apm32f10x_fmc.c ****     #ifdef APM32F10X_HD
 251:Library/APM32F10x_StdPeriphDriver/src/apm32f10x_fmc.c ****           __set_PRIMASK(1);
 252:Library/APM32F10x_StdPeriphDriver/src/apm32f10x_fmc.c ****     #endif
 253:Library/APM32F10x_StdPeriphDriver/src/apm32f10x_fmc.c **** 
 254:Library/APM32F10x_StdPeriphDriver/src/apm32f10x_fmc.c ****     status = FMC_WaitForLastOperation(0x000B0000);
 255:Library/APM32F10x_StdPeriphDriver/src/apm32f10x_fmc.c **** 
 256:Library/APM32F10x_StdPeriphDriver/src/apm32f10x_fmc.c ****     if(status == FMC_STATUS_COMPLETE)
 257:Library/APM32F10x_StdPeriphDriver/src/apm32f10x_fmc.c ****     {
 258:Library/APM32F10x_StdPeriphDriver/src/apm32f10x_fmc.c ****         FMC->CTRL2_B.PG = BIT_SET;
 259:Library/APM32F10x_StdPeriphDriver/src/apm32f10x_fmc.c **** 
 260:Library/APM32F10x_StdPeriphDriver/src/apm32f10x_fmc.c ****         *(__IOM uint16_t *)address = data;
 261:Library/APM32F10x_StdPeriphDriver/src/apm32f10x_fmc.c **** 
 262:Library/APM32F10x_StdPeriphDriver/src/apm32f10x_fmc.c ****         status = FMC_WaitForLastOperation(0x000B0000);
 263:Library/APM32F10x_StdPeriphDriver/src/apm32f10x_fmc.c **** 
 264:Library/APM32F10x_StdPeriphDriver/src/apm32f10x_fmc.c ****         if(status == FMC_STATUS_COMPLETE)
 265:Library/APM32F10x_StdPeriphDriver/src/apm32f10x_fmc.c ****         {
 266:Library/APM32F10x_StdPeriphDriver/src/apm32f10x_fmc.c ****             temp = address + 2;
 267:Library/APM32F10x_StdPeriphDriver/src/apm32f10x_fmc.c **** 
 268:Library/APM32F10x_StdPeriphDriver/src/apm32f10x_fmc.c ****             *(__IOM uint16_t*) temp = data >> 16;
 269:Library/APM32F10x_StdPeriphDriver/src/apm32f10x_fmc.c **** 
 270:Library/APM32F10x_StdPeriphDriver/src/apm32f10x_fmc.c ****             status = FMC_WaitForLastOperation(0x000B0000);
 271:Library/APM32F10x_StdPeriphDriver/src/apm32f10x_fmc.c ****             FMC->CTRL2_B.PG = BIT_RESET;
 272:Library/APM32F10x_StdPeriphDriver/src/apm32f10x_fmc.c ****         }
 273:Library/APM32F10x_StdPeriphDriver/src/apm32f10x_fmc.c ****         else
 274:Library/APM32F10x_StdPeriphDriver/src/apm32f10x_fmc.c ****         {
 275:Library/APM32F10x_StdPeriphDriver/src/apm32f10x_fmc.c ****             FMC->CTRL2_B.PG = BIT_RESET;
 276:Library/APM32F10x_StdPeriphDriver/src/apm32f10x_fmc.c ****         }
 277:Library/APM32F10x_StdPeriphDriver/src/apm32f10x_fmc.c ****     }
 278:Library/APM32F10x_StdPeriphDriver/src/apm32f10x_fmc.c **** 
 279:Library/APM32F10x_StdPeriphDriver/src/apm32f10x_fmc.c ****     #ifdef APM32F10X_HD
 280:Library/APM32F10x_StdPeriphDriver/src/apm32f10x_fmc.c ****         __set_PRIMASK(0);
 281:Library/APM32F10x_StdPeriphDriver/src/apm32f10x_fmc.c ****     #endif
 282:Library/APM32F10x_StdPeriphDriver/src/apm32f10x_fmc.c **** 
 283:Library/APM32F10x_StdPeriphDriver/src/apm32f10x_fmc.c ****     return status;
 284:Library/APM32F10x_StdPeriphDriver/src/apm32f10x_fmc.c **** }
 285:Library/APM32F10x_StdPeriphDriver/src/apm32f10x_fmc.c **** 
 286:Library/APM32F10x_StdPeriphDriver/src/apm32f10x_fmc.c **** /*!
 287:Library/APM32F10x_StdPeriphDriver/src/apm32f10x_fmc.c ****  * @brief     Programs a half word at a specified address.
 288:Library/APM32F10x_StdPeriphDriver/src/apm32f10x_fmc.c ****  *
 289:Library/APM32F10x_StdPeriphDriver/src/apm32f10x_fmc.c ****  * @param     address:the address to be programmed.
 290:Library/APM32F10x_StdPeriphDriver/src/apm32f10x_fmc.c ****  *
 291:Library/APM32F10x_StdPeriphDriver/src/apm32f10x_fmc.c ****  * @param     data: the data to be programmed.
 292:Library/APM32F10x_StdPeriphDriver/src/apm32f10x_fmc.c ****  *
 293:Library/APM32F10x_StdPeriphDriver/src/apm32f10x_fmc.c ****  * @retval    Returns the flash state.It can be one of value:
 294:Library/APM32F10x_StdPeriphDriver/src/apm32f10x_fmc.c ****  *                 @arg FMC_STATUS_ERROR_PG
ARM GAS  C:\Users\geehy\AppData\Local\Temp\ccqa7o7c.s 			page 10


 295:Library/APM32F10x_StdPeriphDriver/src/apm32f10x_fmc.c ****  *                 @arg FMC_STATUS_ERROR_WRP
 296:Library/APM32F10x_StdPeriphDriver/src/apm32f10x_fmc.c ****  *                 @arg FMC_STATUS_COMPLETE
 297:Library/APM32F10x_StdPeriphDriver/src/apm32f10x_fmc.c ****  *                 @arg FMC_STATUS_TIMEOUT
 298:Library/APM32F10x_StdPeriphDriver/src/apm32f10x_fmc.c ****  */
 299:Library/APM32F10x_StdPeriphDriver/src/apm32f10x_fmc.c **** FMC_STATUS_T FMC_ProgramHalfWord(uint32_t address, uint16_t data)
 300:Library/APM32F10x_StdPeriphDriver/src/apm32f10x_fmc.c **** {
 301:Library/APM32F10x_StdPeriphDriver/src/apm32f10x_fmc.c ****     FMC_STATUS_T status = FMC_STATUS_COMPLETE;
 302:Library/APM32F10x_StdPeriphDriver/src/apm32f10x_fmc.c **** 
 303:Library/APM32F10x_StdPeriphDriver/src/apm32f10x_fmc.c ****     #ifdef APM32F10X_HD
 304:Library/APM32F10x_StdPeriphDriver/src/apm32f10x_fmc.c ****         __set_PRIMASK(1);
 305:Library/APM32F10x_StdPeriphDriver/src/apm32f10x_fmc.c ****     #endif
 306:Library/APM32F10x_StdPeriphDriver/src/apm32f10x_fmc.c **** 
 307:Library/APM32F10x_StdPeriphDriver/src/apm32f10x_fmc.c ****     status = FMC_WaitForLastOperation(0x000B0000);
 308:Library/APM32F10x_StdPeriphDriver/src/apm32f10x_fmc.c **** 
 309:Library/APM32F10x_StdPeriphDriver/src/apm32f10x_fmc.c ****     if(status == FMC_STATUS_COMPLETE)
 310:Library/APM32F10x_StdPeriphDriver/src/apm32f10x_fmc.c ****     {
 311:Library/APM32F10x_StdPeriphDriver/src/apm32f10x_fmc.c ****         FMC->CTRL2_B.PG = BIT_SET;
 312:Library/APM32F10x_StdPeriphDriver/src/apm32f10x_fmc.c ****         *(__IOM uint16_t *)address = data;
 313:Library/APM32F10x_StdPeriphDriver/src/apm32f10x_fmc.c ****         status = FMC_WaitForLastOperation(0x000B0000);
 314:Library/APM32F10x_StdPeriphDriver/src/apm32f10x_fmc.c ****         FMC->CTRL2_B.PG = BIT_RESET;
 315:Library/APM32F10x_StdPeriphDriver/src/apm32f10x_fmc.c ****     }
 316:Library/APM32F10x_StdPeriphDriver/src/apm32f10x_fmc.c **** 
 317:Library/APM32F10x_StdPeriphDriver/src/apm32f10x_fmc.c ****     #ifdef APM32F10X_HD
 318:Library/APM32F10x_StdPeriphDriver/src/apm32f10x_fmc.c ****         __set_PRIMASK(0);
 319:Library/APM32F10x_StdPeriphDriver/src/apm32f10x_fmc.c ****     #endif
 320:Library/APM32F10x_StdPeriphDriver/src/apm32f10x_fmc.c **** 
 321:Library/APM32F10x_StdPeriphDriver/src/apm32f10x_fmc.c ****     return status;
 322:Library/APM32F10x_StdPeriphDriver/src/apm32f10x_fmc.c **** }
 323:Library/APM32F10x_StdPeriphDriver/src/apm32f10x_fmc.c **** 
 324:Library/APM32F10x_StdPeriphDriver/src/apm32f10x_fmc.c **** /*!
 325:Library/APM32F10x_StdPeriphDriver/src/apm32f10x_fmc.c ****  * @brief     Programs a half word at a specified Option Byte Data address.
 326:Library/APM32F10x_StdPeriphDriver/src/apm32f10x_fmc.c ****  *
 327:Library/APM32F10x_StdPeriphDriver/src/apm32f10x_fmc.c ****  * @param     address:the address to be programmed.
 328:Library/APM32F10x_StdPeriphDriver/src/apm32f10x_fmc.c ****  *
 329:Library/APM32F10x_StdPeriphDriver/src/apm32f10x_fmc.c ****  * @param     data: the data to be programmed.
 330:Library/APM32F10x_StdPeriphDriver/src/apm32f10x_fmc.c ****  *
 331:Library/APM32F10x_StdPeriphDriver/src/apm32f10x_fmc.c ****  * @retval    Returns the flash state.It can be one of value:
 332:Library/APM32F10x_StdPeriphDriver/src/apm32f10x_fmc.c ****  *                 @arg FMC_STATUS_ERROR_PG
 333:Library/APM32F10x_StdPeriphDriver/src/apm32f10x_fmc.c ****  *                 @arg FMC_STATUS_ERROR_WRP
 334:Library/APM32F10x_StdPeriphDriver/src/apm32f10x_fmc.c ****  *                 @arg FMC_STATUS_COMPLETE
 335:Library/APM32F10x_StdPeriphDriver/src/apm32f10x_fmc.c ****  *                 @arg FMC_STATUS_TIMEOUT
 336:Library/APM32F10x_StdPeriphDriver/src/apm32f10x_fmc.c ****  */
 337:Library/APM32F10x_StdPeriphDriver/src/apm32f10x_fmc.c **** FMC_STATUS_T FMC_ProgramOptionByteData(uint32_t address, uint8_t data)
 338:Library/APM32F10x_StdPeriphDriver/src/apm32f10x_fmc.c **** {
 339:Library/APM32F10x_StdPeriphDriver/src/apm32f10x_fmc.c ****     FMC_STATUS_T status = FMC_STATUS_COMPLETE;
 340:Library/APM32F10x_StdPeriphDriver/src/apm32f10x_fmc.c **** 
 341:Library/APM32F10x_StdPeriphDriver/src/apm32f10x_fmc.c ****     status = FMC_WaitForLastOperation(0x000B0000);
 342:Library/APM32F10x_StdPeriphDriver/src/apm32f10x_fmc.c **** 
 343:Library/APM32F10x_StdPeriphDriver/src/apm32f10x_fmc.c ****     if(status == FMC_STATUS_COMPLETE)
 344:Library/APM32F10x_StdPeriphDriver/src/apm32f10x_fmc.c ****     {
 345:Library/APM32F10x_StdPeriphDriver/src/apm32f10x_fmc.c ****         FMC->OBKEY = 0x45670123;
 346:Library/APM32F10x_StdPeriphDriver/src/apm32f10x_fmc.c ****         FMC->OBKEY = 0xCDEF89AB;
 347:Library/APM32F10x_StdPeriphDriver/src/apm32f10x_fmc.c **** 
 348:Library/APM32F10x_StdPeriphDriver/src/apm32f10x_fmc.c ****         FMC->CTRL2_B.OBP = BIT_SET;
 349:Library/APM32F10x_StdPeriphDriver/src/apm32f10x_fmc.c ****         *(__IOM uint16_t *)address = data;
 350:Library/APM32F10x_StdPeriphDriver/src/apm32f10x_fmc.c ****         status = FMC_WaitForLastOperation(0x000B0000);
 351:Library/APM32F10x_StdPeriphDriver/src/apm32f10x_fmc.c ****         if(status == FMC_STATUS_TIMEOUT)
ARM GAS  C:\Users\geehy\AppData\Local\Temp\ccqa7o7c.s 			page 11


 352:Library/APM32F10x_StdPeriphDriver/src/apm32f10x_fmc.c ****         {
 353:Library/APM32F10x_StdPeriphDriver/src/apm32f10x_fmc.c ****             FMC->CTRL2_B.OBP = BIT_RESET;
 354:Library/APM32F10x_StdPeriphDriver/src/apm32f10x_fmc.c ****         }
 355:Library/APM32F10x_StdPeriphDriver/src/apm32f10x_fmc.c ****     }
 356:Library/APM32F10x_StdPeriphDriver/src/apm32f10x_fmc.c ****     return status;
 357:Library/APM32F10x_StdPeriphDriver/src/apm32f10x_fmc.c **** }
 358:Library/APM32F10x_StdPeriphDriver/src/apm32f10x_fmc.c **** 
 359:Library/APM32F10x_StdPeriphDriver/src/apm32f10x_fmc.c **** /*!
 360:Library/APM32F10x_StdPeriphDriver/src/apm32f10x_fmc.c ****  * @brief     Write protects the desired pages
 361:Library/APM32F10x_StdPeriphDriver/src/apm32f10x_fmc.c ****  *
 362:Library/APM32F10x_StdPeriphDriver/src/apm32f10x_fmc.c ****  * @param     page:the address of the pages to be write protection
 363:Library/APM32F10x_StdPeriphDriver/src/apm32f10x_fmc.c ****  *                This parameter can be any combination of the following values:
 364:Library/APM32F10x_StdPeriphDriver/src/apm32f10x_fmc.c ****  *                 for APM32F10X_LD £º
 365:Library/APM32F10x_StdPeriphDriver/src/apm32f10x_fmc.c ****  *                    @arg FLASH_WRP_PAGE_0_3 to FLASH_WRP_PAGE_28_31
 366:Library/APM32F10x_StdPeriphDriver/src/apm32f10x_fmc.c ****  *                 for APM32F10X_MD £º
 367:Library/APM32F10x_StdPeriphDriver/src/apm32f10x_fmc.c ****  *                    @arg FLASH_WRP_PAGE_0_3 to FLASH_WRP_PAGE_124_127
 368:Library/APM32F10x_StdPeriphDriver/src/apm32f10x_fmc.c ****  *                 for APM32F10X_HD £º
 369:Library/APM32F10x_StdPeriphDriver/src/apm32f10x_fmc.c ****  *                    @arg FLASH_WRP_PAGE_0_1 to FLASH_WRP_PAGE_60_61 or FLASH_WRP_PAGE_62_127
 370:Library/APM32F10x_StdPeriphDriver/src/apm32f10x_fmc.c ****  *                 @arg FMC_WRP_PAGE_ALL
 371:Library/APM32F10x_StdPeriphDriver/src/apm32f10x_fmc.c ****  *
 372:Library/APM32F10x_StdPeriphDriver/src/apm32f10x_fmc.c ****  * @retval    Returns the flash state.It can be one of value:
 373:Library/APM32F10x_StdPeriphDriver/src/apm32f10x_fmc.c ****  *                 @arg FMC_STATUS_ERROR_PG
 374:Library/APM32F10x_StdPeriphDriver/src/apm32f10x_fmc.c ****  *                 @arg FMC_STATUS_ERROR_WRP
 375:Library/APM32F10x_StdPeriphDriver/src/apm32f10x_fmc.c ****  *                 @arg FMC_STATUS_COMPLETE
 376:Library/APM32F10x_StdPeriphDriver/src/apm32f10x_fmc.c ****  *                 @arg FMC_STATUS_TIMEOUT
 377:Library/APM32F10x_StdPeriphDriver/src/apm32f10x_fmc.c ****  */
 378:Library/APM32F10x_StdPeriphDriver/src/apm32f10x_fmc.c **** FMC_STATUS_T FMC_EnableWriteProtection(uint32_t page)
 379:Library/APM32F10x_StdPeriphDriver/src/apm32f10x_fmc.c **** {
 380:Library/APM32F10x_StdPeriphDriver/src/apm32f10x_fmc.c ****     uint16_t WPP0_Data = 0xFFFF, WPP1_Data = 0xFFFF, WPP2_Data = 0xFFFF, WPP3_Data = 0xFFFF;
 381:Library/APM32F10x_StdPeriphDriver/src/apm32f10x_fmc.c ****     FMC_STATUS_T status = FMC_STATUS_COMPLETE;
 382:Library/APM32F10x_StdPeriphDriver/src/apm32f10x_fmc.c **** 
 383:Library/APM32F10x_StdPeriphDriver/src/apm32f10x_fmc.c ****     page = ~page;
 384:Library/APM32F10x_StdPeriphDriver/src/apm32f10x_fmc.c ****     WPP0_Data = (page & 0x000000FF);
 385:Library/APM32F10x_StdPeriphDriver/src/apm32f10x_fmc.c ****     WPP1_Data = (page & 0x0000FF00) >> 8;
 386:Library/APM32F10x_StdPeriphDriver/src/apm32f10x_fmc.c ****     WPP2_Data = (page & 0x00FF0000) >> 16;
 387:Library/APM32F10x_StdPeriphDriver/src/apm32f10x_fmc.c ****     WPP3_Data = (page & 0xFF000000) >> 24;
 388:Library/APM32F10x_StdPeriphDriver/src/apm32f10x_fmc.c **** 
 389:Library/APM32F10x_StdPeriphDriver/src/apm32f10x_fmc.c ****     status = FMC_WaitForLastOperation(0x000B0000);
 390:Library/APM32F10x_StdPeriphDriver/src/apm32f10x_fmc.c **** 
 391:Library/APM32F10x_StdPeriphDriver/src/apm32f10x_fmc.c ****     if(status == FMC_STATUS_COMPLETE)
 392:Library/APM32F10x_StdPeriphDriver/src/apm32f10x_fmc.c ****     {
 393:Library/APM32F10x_StdPeriphDriver/src/apm32f10x_fmc.c ****         FMC->OBKEY = 0x45670123;
 394:Library/APM32F10x_StdPeriphDriver/src/apm32f10x_fmc.c ****         FMC->OBKEY = 0xCDEF89AB;
 395:Library/APM32F10x_StdPeriphDriver/src/apm32f10x_fmc.c ****         FMC->CTRL2_B.OBP = BIT_SET;
 396:Library/APM32F10x_StdPeriphDriver/src/apm32f10x_fmc.c **** 
 397:Library/APM32F10x_StdPeriphDriver/src/apm32f10x_fmc.c ****         if(WPP0_Data != 0xFF)
 398:Library/APM32F10x_StdPeriphDriver/src/apm32f10x_fmc.c ****         {
 399:Library/APM32F10x_StdPeriphDriver/src/apm32f10x_fmc.c ****             OB->WRP0 = WPP0_Data;
 400:Library/APM32F10x_StdPeriphDriver/src/apm32f10x_fmc.c ****             status = FMC_WaitForLastOperation(0x000B0000);
 401:Library/APM32F10x_StdPeriphDriver/src/apm32f10x_fmc.c ****         }
 402:Library/APM32F10x_StdPeriphDriver/src/apm32f10x_fmc.c ****         if((status == FMC_STATUS_COMPLETE) && (WPP1_Data != 0xFF))
 403:Library/APM32F10x_StdPeriphDriver/src/apm32f10x_fmc.c ****         {
 404:Library/APM32F10x_StdPeriphDriver/src/apm32f10x_fmc.c ****             OB->WRP1 = WPP1_Data;
 405:Library/APM32F10x_StdPeriphDriver/src/apm32f10x_fmc.c ****             status = FMC_WaitForLastOperation(0x000B0000);
 406:Library/APM32F10x_StdPeriphDriver/src/apm32f10x_fmc.c ****         }
 407:Library/APM32F10x_StdPeriphDriver/src/apm32f10x_fmc.c ****         if((status == FMC_STATUS_COMPLETE) && (WPP2_Data != 0xFF))
 408:Library/APM32F10x_StdPeriphDriver/src/apm32f10x_fmc.c ****         {
ARM GAS  C:\Users\geehy\AppData\Local\Temp\ccqa7o7c.s 			page 12


 409:Library/APM32F10x_StdPeriphDriver/src/apm32f10x_fmc.c ****             OB->WRP2 = WPP2_Data;
 410:Library/APM32F10x_StdPeriphDriver/src/apm32f10x_fmc.c ****             status = FMC_WaitForLastOperation(0x000B0000);
 411:Library/APM32F10x_StdPeriphDriver/src/apm32f10x_fmc.c ****         }
 412:Library/APM32F10x_StdPeriphDriver/src/apm32f10x_fmc.c ****         if((status == FMC_STATUS_COMPLETE) && (WPP3_Data != 0xFF))
 413:Library/APM32F10x_StdPeriphDriver/src/apm32f10x_fmc.c ****         {
 414:Library/APM32F10x_StdPeriphDriver/src/apm32f10x_fmc.c ****             OB->WRP3 = WPP3_Data;
 415:Library/APM32F10x_StdPeriphDriver/src/apm32f10x_fmc.c ****             status = FMC_WaitForLastOperation(0x000B0000);
 416:Library/APM32F10x_StdPeriphDriver/src/apm32f10x_fmc.c ****         }
 417:Library/APM32F10x_StdPeriphDriver/src/apm32f10x_fmc.c **** 
 418:Library/APM32F10x_StdPeriphDriver/src/apm32f10x_fmc.c ****         if(status != FMC_STATUS_TIMEOUT)
 419:Library/APM32F10x_StdPeriphDriver/src/apm32f10x_fmc.c ****         {
 420:Library/APM32F10x_StdPeriphDriver/src/apm32f10x_fmc.c ****             FMC->CTRL2_B.OBP = BIT_RESET;
 421:Library/APM32F10x_StdPeriphDriver/src/apm32f10x_fmc.c ****         }
 422:Library/APM32F10x_StdPeriphDriver/src/apm32f10x_fmc.c ****     }
 423:Library/APM32F10x_StdPeriphDriver/src/apm32f10x_fmc.c ****     return status;
 424:Library/APM32F10x_StdPeriphDriver/src/apm32f10x_fmc.c **** }
 425:Library/APM32F10x_StdPeriphDriver/src/apm32f10x_fmc.c **** 
 426:Library/APM32F10x_StdPeriphDriver/src/apm32f10x_fmc.c **** /*!
 427:Library/APM32F10x_StdPeriphDriver/src/apm32f10x_fmc.c ****  * @brief     Enables the read out protection.
 428:Library/APM32F10x_StdPeriphDriver/src/apm32f10x_fmc.c ****  *
 429:Library/APM32F10x_StdPeriphDriver/src/apm32f10x_fmc.c ****  * @param     None
 430:Library/APM32F10x_StdPeriphDriver/src/apm32f10x_fmc.c ****  *
 431:Library/APM32F10x_StdPeriphDriver/src/apm32f10x_fmc.c ****  * @retval    Returns the flash state.It can be one of value:
 432:Library/APM32F10x_StdPeriphDriver/src/apm32f10x_fmc.c ****  *                 @arg FMC_STATUS_ERROR_PG
 433:Library/APM32F10x_StdPeriphDriver/src/apm32f10x_fmc.c ****  *                 @arg FMC_STATUS_ERROR_WRP
 434:Library/APM32F10x_StdPeriphDriver/src/apm32f10x_fmc.c ****  *                 @arg FMC_STATUS_COMPLETE
 435:Library/APM32F10x_StdPeriphDriver/src/apm32f10x_fmc.c ****  *                 @arg FMC_STATUS_TIMEOUT
 436:Library/APM32F10x_StdPeriphDriver/src/apm32f10x_fmc.c ****  */
 437:Library/APM32F10x_StdPeriphDriver/src/apm32f10x_fmc.c **** FMC_STATUS_T FMC_EnableReadOutProtection(void)
 438:Library/APM32F10x_StdPeriphDriver/src/apm32f10x_fmc.c **** {
 439:Library/APM32F10x_StdPeriphDriver/src/apm32f10x_fmc.c ****     FMC_STATUS_T status = FMC_STATUS_COMPLETE;
 440:Library/APM32F10x_StdPeriphDriver/src/apm32f10x_fmc.c **** 
 441:Library/APM32F10x_StdPeriphDriver/src/apm32f10x_fmc.c ****     status = FMC_WaitForLastOperation(0x000B0000);
 442:Library/APM32F10x_StdPeriphDriver/src/apm32f10x_fmc.c **** 
 443:Library/APM32F10x_StdPeriphDriver/src/apm32f10x_fmc.c ****     if(status == FMC_STATUS_COMPLETE)
 444:Library/APM32F10x_StdPeriphDriver/src/apm32f10x_fmc.c ****     {
 445:Library/APM32F10x_StdPeriphDriver/src/apm32f10x_fmc.c ****         FMC->OBKEY = 0x45670123;
 446:Library/APM32F10x_StdPeriphDriver/src/apm32f10x_fmc.c ****         FMC->OBKEY = 0xCDEF89AB;
 447:Library/APM32F10x_StdPeriphDriver/src/apm32f10x_fmc.c **** 
 448:Library/APM32F10x_StdPeriphDriver/src/apm32f10x_fmc.c ****         FMC->CTRL2_B.OBE = BIT_SET;
 449:Library/APM32F10x_StdPeriphDriver/src/apm32f10x_fmc.c ****         FMC->CTRL2_B.STA = BIT_SET;
 450:Library/APM32F10x_StdPeriphDriver/src/apm32f10x_fmc.c **** 
 451:Library/APM32F10x_StdPeriphDriver/src/apm32f10x_fmc.c ****         status = FMC_WaitForLastOperation(0x000B0000);
 452:Library/APM32F10x_StdPeriphDriver/src/apm32f10x_fmc.c **** 
 453:Library/APM32F10x_StdPeriphDriver/src/apm32f10x_fmc.c ****         if(status == FMC_STATUS_COMPLETE)
 454:Library/APM32F10x_StdPeriphDriver/src/apm32f10x_fmc.c ****         {
 455:Library/APM32F10x_StdPeriphDriver/src/apm32f10x_fmc.c ****             FMC->CTRL2_B.OBE = BIT_RESET;
 456:Library/APM32F10x_StdPeriphDriver/src/apm32f10x_fmc.c ****             FMC->CTRL2_B.OBP = BIT_SET;
 457:Library/APM32F10x_StdPeriphDriver/src/apm32f10x_fmc.c ****             OB->RDP = 0x00A5;
 458:Library/APM32F10x_StdPeriphDriver/src/apm32f10x_fmc.c **** 
 459:Library/APM32F10x_StdPeriphDriver/src/apm32f10x_fmc.c ****             status = FMC_WaitForLastOperation(0x000B0000);
 460:Library/APM32F10x_StdPeriphDriver/src/apm32f10x_fmc.c **** 
 461:Library/APM32F10x_StdPeriphDriver/src/apm32f10x_fmc.c ****             if(status != FMC_STATUS_TIMEOUT)
 462:Library/APM32F10x_StdPeriphDriver/src/apm32f10x_fmc.c ****             {
 463:Library/APM32F10x_StdPeriphDriver/src/apm32f10x_fmc.c ****                 FMC->CTRL2_B.OBP = BIT_RESET;
 464:Library/APM32F10x_StdPeriphDriver/src/apm32f10x_fmc.c ****             }
 465:Library/APM32F10x_StdPeriphDriver/src/apm32f10x_fmc.c ****         }
ARM GAS  C:\Users\geehy\AppData\Local\Temp\ccqa7o7c.s 			page 13


 466:Library/APM32F10x_StdPeriphDriver/src/apm32f10x_fmc.c ****         else if(status != FMC_STATUS_TIMEOUT)
 467:Library/APM32F10x_StdPeriphDriver/src/apm32f10x_fmc.c ****         {
 468:Library/APM32F10x_StdPeriphDriver/src/apm32f10x_fmc.c ****             FMC->CTRL2_B.OBE = BIT_RESET;
 469:Library/APM32F10x_StdPeriphDriver/src/apm32f10x_fmc.c ****         }
 470:Library/APM32F10x_StdPeriphDriver/src/apm32f10x_fmc.c ****     }
 471:Library/APM32F10x_StdPeriphDriver/src/apm32f10x_fmc.c ****     return status;
 472:Library/APM32F10x_StdPeriphDriver/src/apm32f10x_fmc.c **** }
 473:Library/APM32F10x_StdPeriphDriver/src/apm32f10x_fmc.c **** 
 474:Library/APM32F10x_StdPeriphDriver/src/apm32f10x_fmc.c **** /*!
 475:Library/APM32F10x_StdPeriphDriver/src/apm32f10x_fmc.c ****  * @brief     Disables the read out protection.
 476:Library/APM32F10x_StdPeriphDriver/src/apm32f10x_fmc.c ****  *
 477:Library/APM32F10x_StdPeriphDriver/src/apm32f10x_fmc.c ****  * @param     None
 478:Library/APM32F10x_StdPeriphDriver/src/apm32f10x_fmc.c ****  *
 479:Library/APM32F10x_StdPeriphDriver/src/apm32f10x_fmc.c ****  * @retval    Returns the flash state.It can be one of value:
 480:Library/APM32F10x_StdPeriphDriver/src/apm32f10x_fmc.c ****  *                 @arg FMC_STATUS_ERROR_PG
 481:Library/APM32F10x_StdPeriphDriver/src/apm32f10x_fmc.c ****  *                 @arg FMC_STATUS_ERROR_WRP
 482:Library/APM32F10x_StdPeriphDriver/src/apm32f10x_fmc.c ****  *                 @arg FMC_STATUS_COMPLETE
 483:Library/APM32F10x_StdPeriphDriver/src/apm32f10x_fmc.c ****  *                 @arg FMC_STATUS_TIMEOUT
 484:Library/APM32F10x_StdPeriphDriver/src/apm32f10x_fmc.c ****  */
 485:Library/APM32F10x_StdPeriphDriver/src/apm32f10x_fmc.c **** FMC_STATUS_T FMC_DisableReadOutProtection(void)
 486:Library/APM32F10x_StdPeriphDriver/src/apm32f10x_fmc.c **** {
 487:Library/APM32F10x_StdPeriphDriver/src/apm32f10x_fmc.c ****     FMC_STATUS_T status = FMC_STATUS_COMPLETE;
 488:Library/APM32F10x_StdPeriphDriver/src/apm32f10x_fmc.c **** 
 489:Library/APM32F10x_StdPeriphDriver/src/apm32f10x_fmc.c ****     status = FMC_WaitForLastOperation(0x000B0000);
 490:Library/APM32F10x_StdPeriphDriver/src/apm32f10x_fmc.c **** 
 491:Library/APM32F10x_StdPeriphDriver/src/apm32f10x_fmc.c ****     if(status == FMC_STATUS_COMPLETE)
 492:Library/APM32F10x_StdPeriphDriver/src/apm32f10x_fmc.c ****     {
 493:Library/APM32F10x_StdPeriphDriver/src/apm32f10x_fmc.c ****         FMC->OBKEY = 0x45670123;
 494:Library/APM32F10x_StdPeriphDriver/src/apm32f10x_fmc.c ****         FMC->OBKEY = 0xCDEF89AB;
 495:Library/APM32F10x_StdPeriphDriver/src/apm32f10x_fmc.c ****         FMC->CTRL2_B.OBE = BIT_SET;
 496:Library/APM32F10x_StdPeriphDriver/src/apm32f10x_fmc.c ****         FMC->CTRL2_B.STA = BIT_SET;
 497:Library/APM32F10x_StdPeriphDriver/src/apm32f10x_fmc.c **** 
 498:Library/APM32F10x_StdPeriphDriver/src/apm32f10x_fmc.c ****         status = FMC_WaitForLastOperation(0x000B0000);
 499:Library/APM32F10x_StdPeriphDriver/src/apm32f10x_fmc.c **** 
 500:Library/APM32F10x_StdPeriphDriver/src/apm32f10x_fmc.c ****         if(status == FMC_STATUS_COMPLETE)
 501:Library/APM32F10x_StdPeriphDriver/src/apm32f10x_fmc.c ****         {
 502:Library/APM32F10x_StdPeriphDriver/src/apm32f10x_fmc.c ****             FMC->CTRL2_B.OBE = BIT_RESET;
 503:Library/APM32F10x_StdPeriphDriver/src/apm32f10x_fmc.c ****             FMC->CTRL2_B.OBP = BIT_SET;
 504:Library/APM32F10x_StdPeriphDriver/src/apm32f10x_fmc.c ****             OB->RDP = 0x00;
 505:Library/APM32F10x_StdPeriphDriver/src/apm32f10x_fmc.c **** 
 506:Library/APM32F10x_StdPeriphDriver/src/apm32f10x_fmc.c ****             status = FMC_WaitForLastOperation(0x000B0000);
 507:Library/APM32F10x_StdPeriphDriver/src/apm32f10x_fmc.c **** 
 508:Library/APM32F10x_StdPeriphDriver/src/apm32f10x_fmc.c ****             if(status != FMC_STATUS_TIMEOUT)
 509:Library/APM32F10x_StdPeriphDriver/src/apm32f10x_fmc.c ****             {
 510:Library/APM32F10x_StdPeriphDriver/src/apm32f10x_fmc.c ****                 FMC->CTRL2_B.OBP = BIT_RESET;
 511:Library/APM32F10x_StdPeriphDriver/src/apm32f10x_fmc.c ****             }
 512:Library/APM32F10x_StdPeriphDriver/src/apm32f10x_fmc.c ****         }
 513:Library/APM32F10x_StdPeriphDriver/src/apm32f10x_fmc.c ****         else if(status != FMC_STATUS_TIMEOUT)
 514:Library/APM32F10x_StdPeriphDriver/src/apm32f10x_fmc.c ****         {
 515:Library/APM32F10x_StdPeriphDriver/src/apm32f10x_fmc.c ****             FMC->CTRL2_B.OBE = BIT_RESET;
 516:Library/APM32F10x_StdPeriphDriver/src/apm32f10x_fmc.c ****         }
 517:Library/APM32F10x_StdPeriphDriver/src/apm32f10x_fmc.c ****     }
 518:Library/APM32F10x_StdPeriphDriver/src/apm32f10x_fmc.c ****     return status;
 519:Library/APM32F10x_StdPeriphDriver/src/apm32f10x_fmc.c **** }
 520:Library/APM32F10x_StdPeriphDriver/src/apm32f10x_fmc.c **** 
 521:Library/APM32F10x_StdPeriphDriver/src/apm32f10x_fmc.c **** /*!
 522:Library/APM32F10x_StdPeriphDriver/src/apm32f10x_fmc.c ****  * @brief     Programs the FMC User Option Byte.
ARM GAS  C:\Users\geehy\AppData\Local\Temp\ccqa7o7c.s 			page 14


 523:Library/APM32F10x_StdPeriphDriver/src/apm32f10x_fmc.c ****  *
 524:Library/APM32F10x_StdPeriphDriver/src/apm32f10x_fmc.c ****  * @param     userConfig: Point to a FMC_UserConfig_T structure.
 525:Library/APM32F10x_StdPeriphDriver/src/apm32f10x_fmc.c ****  *
 526:Library/APM32F10x_StdPeriphDriver/src/apm32f10x_fmc.c ****  * @retval    Returns the flash state.It can be one of value:
 527:Library/APM32F10x_StdPeriphDriver/src/apm32f10x_fmc.c ****  *                 @arg FMC_STATUS_ERROR_PG
 528:Library/APM32F10x_StdPeriphDriver/src/apm32f10x_fmc.c ****  *                 @arg FMC_STATUS_ERROR_WRP
 529:Library/APM32F10x_StdPeriphDriver/src/apm32f10x_fmc.c ****  *                 @arg FMC_STATUS_COMPLETE
 530:Library/APM32F10x_StdPeriphDriver/src/apm32f10x_fmc.c ****  *                 @arg FMC_STATUS_TIMEOUT
 531:Library/APM32F10x_StdPeriphDriver/src/apm32f10x_fmc.c ****  */
 532:Library/APM32F10x_StdPeriphDriver/src/apm32f10x_fmc.c **** FMC_STATUS_T FMC_ConfigUserOptionByte(FMC_UserConfig_T* userConfig)
 533:Library/APM32F10x_StdPeriphDriver/src/apm32f10x_fmc.c **** {
 534:Library/APM32F10x_StdPeriphDriver/src/apm32f10x_fmc.c ****     FMC_STATUS_T status = FMC_STATUS_COMPLETE;
 535:Library/APM32F10x_StdPeriphDriver/src/apm32f10x_fmc.c **** 
 536:Library/APM32F10x_StdPeriphDriver/src/apm32f10x_fmc.c ****     FMC->OBKEY = 0x45670123;
 537:Library/APM32F10x_StdPeriphDriver/src/apm32f10x_fmc.c ****     FMC->OBKEY = 0xCDEF89AB;
 538:Library/APM32F10x_StdPeriphDriver/src/apm32f10x_fmc.c **** 
 539:Library/APM32F10x_StdPeriphDriver/src/apm32f10x_fmc.c ****     status = FMC_WaitForLastOperation(0x000B0000);
 540:Library/APM32F10x_StdPeriphDriver/src/apm32f10x_fmc.c **** 
 541:Library/APM32F10x_StdPeriphDriver/src/apm32f10x_fmc.c ****     if(status == FMC_STATUS_COMPLETE)
 542:Library/APM32F10x_StdPeriphDriver/src/apm32f10x_fmc.c ****     {
 543:Library/APM32F10x_StdPeriphDriver/src/apm32f10x_fmc.c ****         FMC->CTRL2_B.OBP = BIT_SET;
 544:Library/APM32F10x_StdPeriphDriver/src/apm32f10x_fmc.c ****         OB->USER = (uint32_t)userConfig->iwdtSet | \
 545:Library/APM32F10x_StdPeriphDriver/src/apm32f10x_fmc.c ****                    (uint32_t)userConfig->stopSet | \
 546:Library/APM32F10x_StdPeriphDriver/src/apm32f10x_fmc.c ****                    (uint32_t)userConfig->stdbySet | 0xF8;
 547:Library/APM32F10x_StdPeriphDriver/src/apm32f10x_fmc.c ****         status = FMC_WaitForLastOperation(0x000B0000);
 548:Library/APM32F10x_StdPeriphDriver/src/apm32f10x_fmc.c ****         if(status == FMC_STATUS_TIMEOUT)
 549:Library/APM32F10x_StdPeriphDriver/src/apm32f10x_fmc.c ****         {
 550:Library/APM32F10x_StdPeriphDriver/src/apm32f10x_fmc.c ****             FMC->CTRL2_B.OBP = BIT_RESET;
 551:Library/APM32F10x_StdPeriphDriver/src/apm32f10x_fmc.c ****         }
 552:Library/APM32F10x_StdPeriphDriver/src/apm32f10x_fmc.c ****     }
 553:Library/APM32F10x_StdPeriphDriver/src/apm32f10x_fmc.c ****     return status;
 554:Library/APM32F10x_StdPeriphDriver/src/apm32f10x_fmc.c **** }
 555:Library/APM32F10x_StdPeriphDriver/src/apm32f10x_fmc.c **** 
 556:Library/APM32F10x_StdPeriphDriver/src/apm32f10x_fmc.c **** /*!
 557:Library/APM32F10x_StdPeriphDriver/src/apm32f10x_fmc.c ****  * @brief     Read the FMC User Option Bytes values.
 558:Library/APM32F10x_StdPeriphDriver/src/apm32f10x_fmc.c ****  *
 559:Library/APM32F10x_StdPeriphDriver/src/apm32f10x_fmc.c ****  * @param     None
 560:Library/APM32F10x_StdPeriphDriver/src/apm32f10x_fmc.c ****  *
 561:Library/APM32F10x_StdPeriphDriver/src/apm32f10x_fmc.c ****  * @retval    Returns User Option Bytes values
 562:Library/APM32F10x_StdPeriphDriver/src/apm32f10x_fmc.c ****  */
 563:Library/APM32F10x_StdPeriphDriver/src/apm32f10x_fmc.c **** uint32_t FMC_ReadUserOptionByte(void)
 564:Library/APM32F10x_StdPeriphDriver/src/apm32f10x_fmc.c **** {
 235              		.loc 1 564 1 is_stmt 1 view -0
 236              		.cfi_startproc
 237              		@ args = 0, pretend = 0, frame = 0
 238              		@ frame_needed = 0, uses_anonymous_args = 0
 239              		@ link register save eliminated.
 565:Library/APM32F10x_StdPeriphDriver/src/apm32f10x_fmc.c ****     return (FMC->OBCS_B.UOB >> 2);
 240              		.loc 1 565 5 view .LVU31
 241              		.loc 1 565 24 is_stmt 0 view .LVU32
 242 0000 024B     		ldr	r3, .L23
 243 0002 D869     		ldr	r0, [r3, #28]
 566:Library/APM32F10x_StdPeriphDriver/src/apm32f10x_fmc.c **** }
 244              		.loc 1 566 1 view .LVU33
 245 0004 C0F3C210 		ubfx	r0, r0, #7, #3
 246 0008 7047     		bx	lr
 247              	.L24:
ARM GAS  C:\Users\geehy\AppData\Local\Temp\ccqa7o7c.s 			page 15


 248 000a 00BF     		.align	2
 249              	.L23:
 250 000c 00200240 		.word	1073881088
 251              		.cfi_endproc
 252              	.LFE82:
 254              		.section	.text.FMC_ReadOptionByteWriteProtection,"ax",%progbits
 255              		.align	1
 256              		.global	FMC_ReadOptionByteWriteProtection
 257              		.syntax unified
 258              		.thumb
 259              		.thumb_func
 261              	FMC_ReadOptionByteWriteProtection:
 262              	.LFB83:
 567:Library/APM32F10x_StdPeriphDriver/src/apm32f10x_fmc.c **** 
 568:Library/APM32F10x_StdPeriphDriver/src/apm32f10x_fmc.c **** /*!
 569:Library/APM32F10x_StdPeriphDriver/src/apm32f10x_fmc.c ****  * @brief     Read the FMC Write Protection Option Bytes Register value.
 570:Library/APM32F10x_StdPeriphDriver/src/apm32f10x_fmc.c ****  *
 571:Library/APM32F10x_StdPeriphDriver/src/apm32f10x_fmc.c ****  * @param     None
 572:Library/APM32F10x_StdPeriphDriver/src/apm32f10x_fmc.c ****  *
 573:Library/APM32F10x_StdPeriphDriver/src/apm32f10x_fmc.c ****  * @retval    Returns the value of Option Bytes Write Protection Register.
 574:Library/APM32F10x_StdPeriphDriver/src/apm32f10x_fmc.c ****  */
 575:Library/APM32F10x_StdPeriphDriver/src/apm32f10x_fmc.c **** uint32_t FMC_ReadOptionByteWriteProtection(void)
 576:Library/APM32F10x_StdPeriphDriver/src/apm32f10x_fmc.c **** {
 263              		.loc 1 576 1 is_stmt 1 view -0
 264              		.cfi_startproc
 265              		@ args = 0, pretend = 0, frame = 0
 266              		@ frame_needed = 0, uses_anonymous_args = 0
 267              		@ link register save eliminated.
 577:Library/APM32F10x_StdPeriphDriver/src/apm32f10x_fmc.c ****     return FMC->WRTPROT;
 268              		.loc 1 577 5 view .LVU35
 269              		.loc 1 577 15 is_stmt 0 view .LVU36
 270 0000 014B     		ldr	r3, .L26
 271 0002 186A     		ldr	r0, [r3, #32]
 578:Library/APM32F10x_StdPeriphDriver/src/apm32f10x_fmc.c **** }
 272              		.loc 1 578 1 view .LVU37
 273 0004 7047     		bx	lr
 274              	.L27:
 275 0006 00BF     		.align	2
 276              	.L26:
 277 0008 00200240 		.word	1073881088
 278              		.cfi_endproc
 279              	.LFE83:
 281              		.section	.text.FMC_GetReadProtectionStatus,"ax",%progbits
 282              		.align	1
 283              		.global	FMC_GetReadProtectionStatus
 284              		.syntax unified
 285              		.thumb
 286              		.thumb_func
 288              	FMC_GetReadProtectionStatus:
 289              	.LFB84:
 579:Library/APM32F10x_StdPeriphDriver/src/apm32f10x_fmc.c **** 
 580:Library/APM32F10x_StdPeriphDriver/src/apm32f10x_fmc.c **** /*!
 581:Library/APM32F10x_StdPeriphDriver/src/apm32f10x_fmc.c ****  * @brief     Get the FMC Read Out Protection Status is set or not.
 582:Library/APM32F10x_StdPeriphDriver/src/apm32f10x_fmc.c ****  *
 583:Library/APM32F10x_StdPeriphDriver/src/apm32f10x_fmc.c ****  * @param     None
 584:Library/APM32F10x_StdPeriphDriver/src/apm32f10x_fmc.c ****  *
 585:Library/APM32F10x_StdPeriphDriver/src/apm32f10x_fmc.c ****  * @retval    status : set or reset.
ARM GAS  C:\Users\geehy\AppData\Local\Temp\ccqa7o7c.s 			page 16


 586:Library/APM32F10x_StdPeriphDriver/src/apm32f10x_fmc.c ****  */
 587:Library/APM32F10x_StdPeriphDriver/src/apm32f10x_fmc.c **** uint8_t FMC_GetReadProtectionStatus(void)
 588:Library/APM32F10x_StdPeriphDriver/src/apm32f10x_fmc.c **** {
 290              		.loc 1 588 1 is_stmt 1 view -0
 291              		.cfi_startproc
 292              		@ args = 0, pretend = 0, frame = 0
 293              		@ frame_needed = 0, uses_anonymous_args = 0
 294              		@ link register save eliminated.
 589:Library/APM32F10x_StdPeriphDriver/src/apm32f10x_fmc.c ****     uint8_t flagstatus = RESET;
 295              		.loc 1 589 5 view .LVU39
 296              	.LVL1:
 590:Library/APM32F10x_StdPeriphDriver/src/apm32f10x_fmc.c **** 
 591:Library/APM32F10x_StdPeriphDriver/src/apm32f10x_fmc.c ****     if(FMC->OBCS_B.READPROT != RESET)
 297              		.loc 1 591 5 view .LVU40
 298              		.loc 1 591 19 is_stmt 0 view .LVU41
 299 0000 044B     		ldr	r3, .L31
 300 0002 DB69     		ldr	r3, [r3, #28]
 301              		.loc 1 591 7 view .LVU42
 302 0004 13F0020F 		tst	r3, #2
 303 0008 01D0     		beq	.L30
 592:Library/APM32F10x_StdPeriphDriver/src/apm32f10x_fmc.c ****     {
 593:Library/APM32F10x_StdPeriphDriver/src/apm32f10x_fmc.c ****         flagstatus = SET;
 304              		.loc 1 593 20 view .LVU43
 305 000a 0120     		movs	r0, #1
 306 000c 7047     		bx	lr
 307              	.L30:
 594:Library/APM32F10x_StdPeriphDriver/src/apm32f10x_fmc.c ****     }
 595:Library/APM32F10x_StdPeriphDriver/src/apm32f10x_fmc.c ****     else
 596:Library/APM32F10x_StdPeriphDriver/src/apm32f10x_fmc.c ****     {
 597:Library/APM32F10x_StdPeriphDriver/src/apm32f10x_fmc.c ****         flagstatus = RESET;
 308              		.loc 1 597 20 view .LVU44
 309 000e 0020     		movs	r0, #0
 310              	.LVL2:
 598:Library/APM32F10x_StdPeriphDriver/src/apm32f10x_fmc.c ****     }
 599:Library/APM32F10x_StdPeriphDriver/src/apm32f10x_fmc.c ****     return flagstatus;
 311              		.loc 1 599 5 is_stmt 1 view .LVU45
 600:Library/APM32F10x_StdPeriphDriver/src/apm32f10x_fmc.c **** }
 312              		.loc 1 600 1 is_stmt 0 view .LVU46
 313 0010 7047     		bx	lr
 314              	.L32:
 315 0012 00BF     		.align	2
 316              	.L31:
 317 0014 00200240 		.word	1073881088
 318              		.cfi_endproc
 319              	.LFE84:
 321              		.section	.text.FMC_ReadPrefetchBufferStatus,"ax",%progbits
 322              		.align	1
 323              		.global	FMC_ReadPrefetchBufferStatus
 324              		.syntax unified
 325              		.thumb
 326              		.thumb_func
 328              	FMC_ReadPrefetchBufferStatus:
 329              	.LFB85:
 601:Library/APM32F10x_StdPeriphDriver/src/apm32f10x_fmc.c **** 
 602:Library/APM32F10x_StdPeriphDriver/src/apm32f10x_fmc.c **** /*!
 603:Library/APM32F10x_StdPeriphDriver/src/apm32f10x_fmc.c ****  * @brief     FMC Prefetch Buffer status is set or not.
 604:Library/APM32F10x_StdPeriphDriver/src/apm32f10x_fmc.c ****  *
ARM GAS  C:\Users\geehy\AppData\Local\Temp\ccqa7o7c.s 			page 17


 605:Library/APM32F10x_StdPeriphDriver/src/apm32f10x_fmc.c ****  * @param     None
 606:Library/APM32F10x_StdPeriphDriver/src/apm32f10x_fmc.c ****  *
 607:Library/APM32F10x_StdPeriphDriver/src/apm32f10x_fmc.c ****  * @retval    status : set or reset.
 608:Library/APM32F10x_StdPeriphDriver/src/apm32f10x_fmc.c ****  */
 609:Library/APM32F10x_StdPeriphDriver/src/apm32f10x_fmc.c **** uint8_t FMC_ReadPrefetchBufferStatus(void)
 610:Library/APM32F10x_StdPeriphDriver/src/apm32f10x_fmc.c **** {
 330              		.loc 1 610 1 is_stmt 1 view -0
 331              		.cfi_startproc
 332              		@ args = 0, pretend = 0, frame = 0
 333              		@ frame_needed = 0, uses_anonymous_args = 0
 334              		@ link register save eliminated.
 611:Library/APM32F10x_StdPeriphDriver/src/apm32f10x_fmc.c ****     return FMC->CTRL1_B.PBSF;
 335              		.loc 1 611 5 view .LVU48
 336              		.loc 1 611 24 is_stmt 0 view .LVU49
 337 0000 024B     		ldr	r3, .L34
 338 0002 1868     		ldr	r0, [r3]
 612:Library/APM32F10x_StdPeriphDriver/src/apm32f10x_fmc.c **** }
 339              		.loc 1 612 1 view .LVU50
 340 0004 C0F34010 		ubfx	r0, r0, #5, #1
 341 0008 7047     		bx	lr
 342              	.L35:
 343 000a 00BF     		.align	2
 344              	.L34:
 345 000c 00200240 		.word	1073881088
 346              		.cfi_endproc
 347              	.LFE85:
 349              		.section	.text.FMC_EnableInterrupt,"ax",%progbits
 350              		.align	1
 351              		.global	FMC_EnableInterrupt
 352              		.syntax unified
 353              		.thumb
 354              		.thumb_func
 356              	FMC_EnableInterrupt:
 357              	.LVL3:
 358              	.LFB86:
 613:Library/APM32F10x_StdPeriphDriver/src/apm32f10x_fmc.c **** 
 614:Library/APM32F10x_StdPeriphDriver/src/apm32f10x_fmc.c **** /*!
 615:Library/APM32F10x_StdPeriphDriver/src/apm32f10x_fmc.c ****  * @brief     Enables the specified FMC interrupts.
 616:Library/APM32F10x_StdPeriphDriver/src/apm32f10x_fmc.c ****  *
 617:Library/APM32F10x_StdPeriphDriver/src/apm32f10x_fmc.c ****  * @param     interrupt: Select the FMC interrupt sources
 618:Library/APM32F10x_StdPeriphDriver/src/apm32f10x_fmc.c ****  *                       This parameter can be one of the following values:
 619:Library/APM32F10x_StdPeriphDriver/src/apm32f10x_fmc.c ****  *                       @arg FMC_INT_ERR :  Error Interrupt
 620:Library/APM32F10x_StdPeriphDriver/src/apm32f10x_fmc.c ****  *                       @arg FMC_INT_OC  :  Operation Complete Interrupt
 621:Library/APM32F10x_StdPeriphDriver/src/apm32f10x_fmc.c ****  *
 622:Library/APM32F10x_StdPeriphDriver/src/apm32f10x_fmc.c ****  * @retval    None
 623:Library/APM32F10x_StdPeriphDriver/src/apm32f10x_fmc.c ****  */
 624:Library/APM32F10x_StdPeriphDriver/src/apm32f10x_fmc.c **** void FMC_EnableInterrupt(FMC_INT_T interrupt)
 625:Library/APM32F10x_StdPeriphDriver/src/apm32f10x_fmc.c **** {
 359              		.loc 1 625 1 is_stmt 1 view -0
 360              		.cfi_startproc
 361              		@ args = 0, pretend = 0, frame = 0
 362              		@ frame_needed = 0, uses_anonymous_args = 0
 363              		@ link register save eliminated.
 626:Library/APM32F10x_StdPeriphDriver/src/apm32f10x_fmc.c ****     if(interrupt == FMC_INT_ERR)
 364              		.loc 1 626 5 view .LVU52
 365              		.loc 1 626 7 is_stmt 0 view .LVU53
 366 0000 28B9     		cbnz	r0, .L37
ARM GAS  C:\Users\geehy\AppData\Local\Temp\ccqa7o7c.s 			page 18


 627:Library/APM32F10x_StdPeriphDriver/src/apm32f10x_fmc.c ****     {
 628:Library/APM32F10x_StdPeriphDriver/src/apm32f10x_fmc.c ****         FMC->CTRL2_B.ERRIE = ENABLE;
 367              		.loc 1 628 9 is_stmt 1 view .LVU54
 368              		.loc 1 628 28 is_stmt 0 view .LVU55
 369 0002 064A     		ldr	r2, .L39
 370 0004 1369     		ldr	r3, [r2, #16]
 371 0006 43F48063 		orr	r3, r3, #1024
 372 000a 1361     		str	r3, [r2, #16]
 373 000c 7047     		bx	lr
 374              	.L37:
 629:Library/APM32F10x_StdPeriphDriver/src/apm32f10x_fmc.c ****     }
 630:Library/APM32F10x_StdPeriphDriver/src/apm32f10x_fmc.c ****     else
 631:Library/APM32F10x_StdPeriphDriver/src/apm32f10x_fmc.c ****     {
 632:Library/APM32F10x_StdPeriphDriver/src/apm32f10x_fmc.c ****         FMC->CTRL2_B.OCIE = ENABLE;
 375              		.loc 1 632 9 is_stmt 1 view .LVU56
 376              		.loc 1 632 27 is_stmt 0 view .LVU57
 377 000e 034A     		ldr	r2, .L39
 378 0010 1369     		ldr	r3, [r2, #16]
 379 0012 43F48053 		orr	r3, r3, #4096
 380 0016 1361     		str	r3, [r2, #16]
 633:Library/APM32F10x_StdPeriphDriver/src/apm32f10x_fmc.c ****     }
 634:Library/APM32F10x_StdPeriphDriver/src/apm32f10x_fmc.c **** }
 381              		.loc 1 634 1 view .LVU58
 382 0018 7047     		bx	lr
 383              	.L40:
 384 001a 00BF     		.align	2
 385              	.L39:
 386 001c 00200240 		.word	1073881088
 387              		.cfi_endproc
 388              	.LFE86:
 390              		.section	.text.FMC_DisableInterrupt,"ax",%progbits
 391              		.align	1
 392              		.global	FMC_DisableInterrupt
 393              		.syntax unified
 394              		.thumb
 395              		.thumb_func
 397              	FMC_DisableInterrupt:
 398              	.LVL4:
 399              	.LFB87:
 635:Library/APM32F10x_StdPeriphDriver/src/apm32f10x_fmc.c **** 
 636:Library/APM32F10x_StdPeriphDriver/src/apm32f10x_fmc.c **** /*!
 637:Library/APM32F10x_StdPeriphDriver/src/apm32f10x_fmc.c ****  * @brief     Disable the specified FMC interrupts.
 638:Library/APM32F10x_StdPeriphDriver/src/apm32f10x_fmc.c ****  *
 639:Library/APM32F10x_StdPeriphDriver/src/apm32f10x_fmc.c ****  * @param     interrupt: Select the FMC interrupt sources
 640:Library/APM32F10x_StdPeriphDriver/src/apm32f10x_fmc.c ****  *                       This parameter can be one of the following values:
 641:Library/APM32F10x_StdPeriphDriver/src/apm32f10x_fmc.c ****  *                       @arg FMC_INT_ERR :  Error Interrupt
 642:Library/APM32F10x_StdPeriphDriver/src/apm32f10x_fmc.c ****  *                       @arg FMC_INT_OC  :  Operation Complete Interrupt
 643:Library/APM32F10x_StdPeriphDriver/src/apm32f10x_fmc.c ****  *
 644:Library/APM32F10x_StdPeriphDriver/src/apm32f10x_fmc.c ****  * @retval    None
 645:Library/APM32F10x_StdPeriphDriver/src/apm32f10x_fmc.c ****  */
 646:Library/APM32F10x_StdPeriphDriver/src/apm32f10x_fmc.c **** void FMC_DisableInterrupt(FMC_INT_T interrupt)
 647:Library/APM32F10x_StdPeriphDriver/src/apm32f10x_fmc.c **** {
 400              		.loc 1 647 1 is_stmt 1 view -0
 401              		.cfi_startproc
 402              		@ args = 0, pretend = 0, frame = 0
 403              		@ frame_needed = 0, uses_anonymous_args = 0
 404              		@ link register save eliminated.
ARM GAS  C:\Users\geehy\AppData\Local\Temp\ccqa7o7c.s 			page 19


 648:Library/APM32F10x_StdPeriphDriver/src/apm32f10x_fmc.c ****     if(interrupt == FMC_INT_ERR)
 405              		.loc 1 648 5 view .LVU60
 406              		.loc 1 648 7 is_stmt 0 view .LVU61
 407 0000 28B9     		cbnz	r0, .L42
 649:Library/APM32F10x_StdPeriphDriver/src/apm32f10x_fmc.c ****     {
 650:Library/APM32F10x_StdPeriphDriver/src/apm32f10x_fmc.c ****         FMC->CTRL2_B.ERRIE = DISABLE;
 408              		.loc 1 650 9 is_stmt 1 view .LVU62
 409              		.loc 1 650 28 is_stmt 0 view .LVU63
 410 0002 064B     		ldr	r3, .L44
 411 0004 1A69     		ldr	r2, [r3, #16]
 412 0006 6FF38A22 		bfc	r2, #10, #1
 413 000a 1A61     		str	r2, [r3, #16]
 414 000c 7047     		bx	lr
 415              	.L42:
 651:Library/APM32F10x_StdPeriphDriver/src/apm32f10x_fmc.c ****     }
 652:Library/APM32F10x_StdPeriphDriver/src/apm32f10x_fmc.c ****     else
 653:Library/APM32F10x_StdPeriphDriver/src/apm32f10x_fmc.c ****     {
 654:Library/APM32F10x_StdPeriphDriver/src/apm32f10x_fmc.c ****         FMC->CTRL2_B.OCIE = DISABLE;
 416              		.loc 1 654 9 is_stmt 1 view .LVU64
 417              		.loc 1 654 27 is_stmt 0 view .LVU65
 418 000e 034B     		ldr	r3, .L44
 419 0010 1A69     		ldr	r2, [r3, #16]
 420 0012 6FF30C32 		bfc	r2, #12, #1
 421 0016 1A61     		str	r2, [r3, #16]
 655:Library/APM32F10x_StdPeriphDriver/src/apm32f10x_fmc.c ****     }
 656:Library/APM32F10x_StdPeriphDriver/src/apm32f10x_fmc.c **** }
 422              		.loc 1 656 1 view .LVU66
 423 0018 7047     		bx	lr
 424              	.L45:
 425 001a 00BF     		.align	2
 426              	.L44:
 427 001c 00200240 		.word	1073881088
 428              		.cfi_endproc
 429              	.LFE87:
 431              		.section	.text.FMC_ReadStatusFlag,"ax",%progbits
 432              		.align	1
 433              		.global	FMC_ReadStatusFlag
 434              		.syntax unified
 435              		.thumb
 436              		.thumb_func
 438              	FMC_ReadStatusFlag:
 439              	.LVL5:
 440              	.LFB88:
 657:Library/APM32F10x_StdPeriphDriver/src/apm32f10x_fmc.c **** 
 658:Library/APM32F10x_StdPeriphDriver/src/apm32f10x_fmc.c **** /*!
 659:Library/APM32F10x_StdPeriphDriver/src/apm32f10x_fmc.c ****  * @brief     Read FMC flag is set or not
 660:Library/APM32F10x_StdPeriphDriver/src/apm32f10x_fmc.c ****  *
 661:Library/APM32F10x_StdPeriphDriver/src/apm32f10x_fmc.c ****  * @param     flag: status flag of FMC
 662:Library/APM32F10x_StdPeriphDriver/src/apm32f10x_fmc.c ****  *                  This parameter can be one of the following values:
 663:Library/APM32F10x_StdPeriphDriver/src/apm32f10x_fmc.c ****  *                  @arg FMC_FLAG_BUSY : FMC Busy flag
 664:Library/APM32F10x_StdPeriphDriver/src/apm32f10x_fmc.c ****  *                  @arg FMC_FLAG_OC   : FMC Operation Complete flag
 665:Library/APM32F10x_StdPeriphDriver/src/apm32f10x_fmc.c ****  *                  @arg FMC_FLAG_PE   : FMC Program error flag
 666:Library/APM32F10x_StdPeriphDriver/src/apm32f10x_fmc.c ****  *                  @arg FMC_FLAG_WPE  : FMC Write protected error flag
 667:Library/APM32F10x_StdPeriphDriver/src/apm32f10x_fmc.c ****  *                  @arg FMC_FLAG_OBE  : FMC Option Byte error flag
 668:Library/APM32F10x_StdPeriphDriver/src/apm32f10x_fmc.c ****  *
 669:Library/APM32F10x_StdPeriphDriver/src/apm32f10x_fmc.c ****  * @retval    flag status : set or reset
 670:Library/APM32F10x_StdPeriphDriver/src/apm32f10x_fmc.c ****  */
ARM GAS  C:\Users\geehy\AppData\Local\Temp\ccqa7o7c.s 			page 20


 671:Library/APM32F10x_StdPeriphDriver/src/apm32f10x_fmc.c **** uint8_t FMC_ReadStatusFlag(FMC_FLAG_T flag)
 672:Library/APM32F10x_StdPeriphDriver/src/apm32f10x_fmc.c **** {
 441              		.loc 1 672 1 is_stmt 1 view -0
 442              		.cfi_startproc
 443              		@ args = 0, pretend = 0, frame = 0
 444              		@ frame_needed = 0, uses_anonymous_args = 0
 445              		@ link register save eliminated.
 673:Library/APM32F10x_StdPeriphDriver/src/apm32f10x_fmc.c ****     if(flag == FMC_FLAG_OBE)
 446              		.loc 1 673 5 view .LVU68
 447              		.loc 1 673 7 is_stmt 0 view .LVU69
 448 0000 074B     		ldr	r3, .L51
 449 0002 9842     		cmp	r0, r3
 450 0004 05D0     		beq	.L50
 674:Library/APM32F10x_StdPeriphDriver/src/apm32f10x_fmc.c ****     {
 675:Library/APM32F10x_StdPeriphDriver/src/apm32f10x_fmc.c ****         return FMC->OBCS_B.OBE;
 676:Library/APM32F10x_StdPeriphDriver/src/apm32f10x_fmc.c ****     }
 677:Library/APM32F10x_StdPeriphDriver/src/apm32f10x_fmc.c ****     else if((FMC->STS & flag ) != RESET)
 451              		.loc 1 677 10 is_stmt 1 view .LVU70
 452              		.loc 1 677 17 is_stmt 0 view .LVU71
 453 0006 074B     		ldr	r3, .L51+4
 454 0008 DB68     		ldr	r3, [r3, #12]
 455              		.loc 1 677 12 view .LVU72
 456 000a 0342     		tst	r3, r0
 457 000c 06D1     		bne	.L49
 678:Library/APM32F10x_StdPeriphDriver/src/apm32f10x_fmc.c ****     {
 679:Library/APM32F10x_StdPeriphDriver/src/apm32f10x_fmc.c ****         return SET;
 680:Library/APM32F10x_StdPeriphDriver/src/apm32f10x_fmc.c ****     }
 681:Library/APM32F10x_StdPeriphDriver/src/apm32f10x_fmc.c ****     return RESET;
 458              		.loc 1 681 12 view .LVU73
 459 000e 0020     		movs	r0, #0
 460              	.LVL6:
 461              		.loc 1 681 12 view .LVU74
 462 0010 7047     		bx	lr
 463              	.LVL7:
 464              	.L50:
 675:Library/APM32F10x_StdPeriphDriver/src/apm32f10x_fmc.c ****     }
 465              		.loc 1 675 9 is_stmt 1 view .LVU75
 675:Library/APM32F10x_StdPeriphDriver/src/apm32f10x_fmc.c ****     }
 466              		.loc 1 675 27 is_stmt 0 view .LVU76
 467 0012 044B     		ldr	r3, .L51+4
 468 0014 D869     		ldr	r0, [r3, #28]
 469              	.LVL8:
 675:Library/APM32F10x_StdPeriphDriver/src/apm32f10x_fmc.c ****     }
 470              		.loc 1 675 27 view .LVU77
 471 0016 00F00100 		and	r0, r0, #1
 472 001a 7047     		bx	lr
 473              	.LVL9:
 474              	.L49:
 679:Library/APM32F10x_StdPeriphDriver/src/apm32f10x_fmc.c ****     }
 475              		.loc 1 679 16 view .LVU78
 476 001c 0120     		movs	r0, #1
 477              	.LVL10:
 682:Library/APM32F10x_StdPeriphDriver/src/apm32f10x_fmc.c **** }
 478              		.loc 1 682 1 view .LVU79
 479 001e 7047     		bx	lr
 480              	.L52:
 481              		.align	2
ARM GAS  C:\Users\geehy\AppData\Local\Temp\ccqa7o7c.s 			page 21


 482              	.L51:
 483 0020 01000010 		.word	268435457
 484 0024 00200240 		.word	1073881088
 485              		.cfi_endproc
 486              	.LFE88:
 488              		.section	.text.FMC_ClearStatusFlag,"ax",%progbits
 489              		.align	1
 490              		.global	FMC_ClearStatusFlag
 491              		.syntax unified
 492              		.thumb
 493              		.thumb_func
 495              	FMC_ClearStatusFlag:
 496              	.LVL11:
 497              	.LFB89:
 683:Library/APM32F10x_StdPeriphDriver/src/apm32f10x_fmc.c **** 
 684:Library/APM32F10x_StdPeriphDriver/src/apm32f10x_fmc.c **** /*!
 685:Library/APM32F10x_StdPeriphDriver/src/apm32f10x_fmc.c ****  * @brief     Clears the FMC's flag.
 686:Library/APM32F10x_StdPeriphDriver/src/apm32f10x_fmc.c ****  *
 687:Library/APM32F10x_StdPeriphDriver/src/apm32f10x_fmc.c ****  * @param     flag: status flag of FMC
 688:Library/APM32F10x_StdPeriphDriver/src/apm32f10x_fmc.c ****  *                  This parameter can be any combination of the following values:
 689:Library/APM32F10x_StdPeriphDriver/src/apm32f10x_fmc.c ****  *                  @arg FMC_FLAG_OC   : FMC Operation Complete flag
 690:Library/APM32F10x_StdPeriphDriver/src/apm32f10x_fmc.c ****  *                  @arg FMC_FLAG_PE   : FMC Program error flag
 691:Library/APM32F10x_StdPeriphDriver/src/apm32f10x_fmc.c ****  *                  @arg FMC_FLAG_WPE  : FMC Write protected error flag
 692:Library/APM32F10x_StdPeriphDriver/src/apm32f10x_fmc.c ****  *
 693:Library/APM32F10x_StdPeriphDriver/src/apm32f10x_fmc.c ****  * @retval    None
 694:Library/APM32F10x_StdPeriphDriver/src/apm32f10x_fmc.c ****  *
 695:Library/APM32F10x_StdPeriphDriver/src/apm32f10x_fmc.c ****  */
 696:Library/APM32F10x_StdPeriphDriver/src/apm32f10x_fmc.c **** void FMC_ClearStatusFlag(uint32_t flag)
 697:Library/APM32F10x_StdPeriphDriver/src/apm32f10x_fmc.c **** {
 498              		.loc 1 697 1 is_stmt 1 view -0
 499              		.cfi_startproc
 500              		@ args = 0, pretend = 0, frame = 0
 501              		@ frame_needed = 0, uses_anonymous_args = 0
 502              		@ link register save eliminated.
 698:Library/APM32F10x_StdPeriphDriver/src/apm32f10x_fmc.c ****     FMC->STS = flag;
 503              		.loc 1 698 5 view .LVU81
 504              		.loc 1 698 14 is_stmt 0 view .LVU82
 505 0000 014B     		ldr	r3, .L54
 506 0002 D860     		str	r0, [r3, #12]
 699:Library/APM32F10x_StdPeriphDriver/src/apm32f10x_fmc.c **** }
 507              		.loc 1 699 1 view .LVU83
 508 0004 7047     		bx	lr
 509              	.L55:
 510 0006 00BF     		.align	2
 511              	.L54:
 512 0008 00200240 		.word	1073881088
 513              		.cfi_endproc
 514              	.LFE89:
 516              		.section	.text.FMC_ReadStatus,"ax",%progbits
 517              		.align	1
 518              		.global	FMC_ReadStatus
 519              		.syntax unified
 520              		.thumb
 521              		.thumb_func
 523              	FMC_ReadStatus:
 524              	.LFB90:
 700:Library/APM32F10x_StdPeriphDriver/src/apm32f10x_fmc.c **** 
ARM GAS  C:\Users\geehy\AppData\Local\Temp\ccqa7o7c.s 			page 22


 701:Library/APM32F10x_StdPeriphDriver/src/apm32f10x_fmc.c **** /*!
 702:Library/APM32F10x_StdPeriphDriver/src/apm32f10x_fmc.c ****  * @brief     Read the FMC Status.
 703:Library/APM32F10x_StdPeriphDriver/src/apm32f10x_fmc.c ****  *
 704:Library/APM32F10x_StdPeriphDriver/src/apm32f10x_fmc.c ****  * @param     None
 705:Library/APM32F10x_StdPeriphDriver/src/apm32f10x_fmc.c ****  *
 706:Library/APM32F10x_StdPeriphDriver/src/apm32f10x_fmc.c ****  * @retval    Returns the flash state.It can be one of value:
 707:Library/APM32F10x_StdPeriphDriver/src/apm32f10x_fmc.c ****  *                 @arg FMC_STATUS_BUSY
 708:Library/APM32F10x_StdPeriphDriver/src/apm32f10x_fmc.c ****  *                 @arg FMC_STATUS_ERROR_PG
 709:Library/APM32F10x_StdPeriphDriver/src/apm32f10x_fmc.c ****  *                 @arg FMC_STATUS_ERROR_WRP
 710:Library/APM32F10x_StdPeriphDriver/src/apm32f10x_fmc.c ****  *                 @arg FMC_STATUS_COMPLETE
 711:Library/APM32F10x_StdPeriphDriver/src/apm32f10x_fmc.c ****  */
 712:Library/APM32F10x_StdPeriphDriver/src/apm32f10x_fmc.c **** FMC_STATUS_T  FMC_ReadStatus(void)
 713:Library/APM32F10x_StdPeriphDriver/src/apm32f10x_fmc.c **** {
 525              		.loc 1 713 1 is_stmt 1 view -0
 526              		.cfi_startproc
 527              		@ args = 0, pretend = 0, frame = 0
 528              		@ frame_needed = 0, uses_anonymous_args = 0
 529              		@ link register save eliminated.
 714:Library/APM32F10x_StdPeriphDriver/src/apm32f10x_fmc.c ****     FMC_STATUS_T status = FMC_STATUS_COMPLETE;
 530              		.loc 1 714 5 view .LVU85
 531              	.LVL12:
 715:Library/APM32F10x_StdPeriphDriver/src/apm32f10x_fmc.c **** 
 716:Library/APM32F10x_StdPeriphDriver/src/apm32f10x_fmc.c ****     if(FMC->STS_B.BUSYF == BIT_SET)
 532              		.loc 1 716 5 view .LVU86
 533              		.loc 1 716 18 is_stmt 0 view .LVU87
 534 0000 0B4B     		ldr	r3, .L62
 535 0002 DB68     		ldr	r3, [r3, #12]
 536              		.loc 1 716 7 view .LVU88
 537 0004 13F0010F 		tst	r3, #1
 538 0008 0DD1     		bne	.L58
 717:Library/APM32F10x_StdPeriphDriver/src/apm32f10x_fmc.c ****     {
 718:Library/APM32F10x_StdPeriphDriver/src/apm32f10x_fmc.c ****         status = FMC_STATUS_BUSY;
 719:Library/APM32F10x_StdPeriphDriver/src/apm32f10x_fmc.c ****     }
 720:Library/APM32F10x_StdPeriphDriver/src/apm32f10x_fmc.c ****     else if(FMC->STS_B.PEF == BIT_SET)
 539              		.loc 1 720 10 is_stmt 1 view .LVU89
 540              		.loc 1 720 23 is_stmt 0 view .LVU90
 541 000a 094B     		ldr	r3, .L62
 542 000c DB68     		ldr	r3, [r3, #12]
 543              		.loc 1 720 12 view .LVU91
 544 000e 13F0040F 		tst	r3, #4
 545 0012 0AD1     		bne	.L59
 721:Library/APM32F10x_StdPeriphDriver/src/apm32f10x_fmc.c ****     {
 722:Library/APM32F10x_StdPeriphDriver/src/apm32f10x_fmc.c ****         status = FMC_STATUS_ERROR_PG;
 723:Library/APM32F10x_StdPeriphDriver/src/apm32f10x_fmc.c ****     }
 724:Library/APM32F10x_StdPeriphDriver/src/apm32f10x_fmc.c ****     else if(FMC->STS_B.WPEF == BIT_SET)
 546              		.loc 1 724 10 is_stmt 1 view .LVU92
 547              		.loc 1 724 23 is_stmt 0 view .LVU93
 548 0014 064B     		ldr	r3, .L62
 549 0016 DB68     		ldr	r3, [r3, #12]
 550              		.loc 1 724 12 view .LVU94
 551 0018 13F0100F 		tst	r3, #16
 552 001c 01D1     		bne	.L61
 725:Library/APM32F10x_StdPeriphDriver/src/apm32f10x_fmc.c ****     {
 726:Library/APM32F10x_StdPeriphDriver/src/apm32f10x_fmc.c ****         status = FMC_STATUS_ERROR_WRP;
 727:Library/APM32F10x_StdPeriphDriver/src/apm32f10x_fmc.c ****     }
 728:Library/APM32F10x_StdPeriphDriver/src/apm32f10x_fmc.c ****     else
 729:Library/APM32F10x_StdPeriphDriver/src/apm32f10x_fmc.c ****     {
ARM GAS  C:\Users\geehy\AppData\Local\Temp\ccqa7o7c.s 			page 23


 730:Library/APM32F10x_StdPeriphDriver/src/apm32f10x_fmc.c ****         status = FMC_STATUS_COMPLETE;
 553              		.loc 1 730 16 view .LVU95
 554 001e 0420     		movs	r0, #4
 555              	.LVL13:
 731:Library/APM32F10x_StdPeriphDriver/src/apm32f10x_fmc.c ****     }
 732:Library/APM32F10x_StdPeriphDriver/src/apm32f10x_fmc.c ****     return status;
 556              		.loc 1 732 5 is_stmt 1 view .LVU96
 733:Library/APM32F10x_StdPeriphDriver/src/apm32f10x_fmc.c **** }
 557              		.loc 1 733 1 is_stmt 0 view .LVU97
 558 0020 7047     		bx	lr
 559              	.LVL14:
 560              	.L61:
 726:Library/APM32F10x_StdPeriphDriver/src/apm32f10x_fmc.c ****     }
 561              		.loc 1 726 16 view .LVU98
 562 0022 0320     		movs	r0, #3
 563 0024 7047     		bx	lr
 564              	.L58:
 718:Library/APM32F10x_StdPeriphDriver/src/apm32f10x_fmc.c ****     }
 565              		.loc 1 718 16 view .LVU99
 566 0026 0120     		movs	r0, #1
 567 0028 7047     		bx	lr
 568              	.L59:
 722:Library/APM32F10x_StdPeriphDriver/src/apm32f10x_fmc.c ****     }
 569              		.loc 1 722 16 view .LVU100
 570 002a 0220     		movs	r0, #2
 571 002c 7047     		bx	lr
 572              	.L63:
 573 002e 00BF     		.align	2
 574              	.L62:
 575 0030 00200240 		.word	1073881088
 576              		.cfi_endproc
 577              	.LFE90:
 579              		.section	.text.FMC_WaitForLastOperation,"ax",%progbits
 580              		.align	1
 581              		.global	FMC_WaitForLastOperation
 582              		.syntax unified
 583              		.thumb
 584              		.thumb_func
 586              	FMC_WaitForLastOperation:
 587              	.LVL15:
 588              	.LFB91:
 734:Library/APM32F10x_StdPeriphDriver/src/apm32f10x_fmc.c **** 
 735:Library/APM32F10x_StdPeriphDriver/src/apm32f10x_fmc.c **** /*!
 736:Library/APM32F10x_StdPeriphDriver/src/apm32f10x_fmc.c ****  * @brief     Waits for a Flash operation to complete or a TIMEOUT to occur.
 737:Library/APM32F10x_StdPeriphDriver/src/apm32f10x_fmc.c ****  *
 738:Library/APM32F10x_StdPeriphDriver/src/apm32f10x_fmc.c ****  * @param     timeOut:FMC programming timeout value.
 739:Library/APM32F10x_StdPeriphDriver/src/apm32f10x_fmc.c ****  *
 740:Library/APM32F10x_StdPeriphDriver/src/apm32f10x_fmc.c ****  * @retval    Returns the flash state.It can be one of value:
 741:Library/APM32F10x_StdPeriphDriver/src/apm32f10x_fmc.c ****  *                 @arg FMC_STATUS_ERROR_PG
 742:Library/APM32F10x_StdPeriphDriver/src/apm32f10x_fmc.c ****  *                 @arg FMC_STATUS_ERROR_WRP
 743:Library/APM32F10x_StdPeriphDriver/src/apm32f10x_fmc.c ****  *                 @arg FMC_STATUS_COMPLETE
 744:Library/APM32F10x_StdPeriphDriver/src/apm32f10x_fmc.c ****  *                 @arg FMC_STATUS_TIMEOUT
 745:Library/APM32F10x_StdPeriphDriver/src/apm32f10x_fmc.c ****  */
 746:Library/APM32F10x_StdPeriphDriver/src/apm32f10x_fmc.c **** FMC_STATUS_T FMC_WaitForLastOperation(uint32_t timeOut)
 747:Library/APM32F10x_StdPeriphDriver/src/apm32f10x_fmc.c **** {
 589              		.loc 1 747 1 is_stmt 1 view -0
 590              		.cfi_startproc
ARM GAS  C:\Users\geehy\AppData\Local\Temp\ccqa7o7c.s 			page 24


 591              		@ args = 0, pretend = 0, frame = 0
 592              		@ frame_needed = 0, uses_anonymous_args = 0
 593              		.loc 1 747 1 is_stmt 0 view .LVU102
 594 0000 10B5     		push	{r4, lr}
 595              	.LCFI0:
 596              		.cfi_def_cfa_offset 8
 597              		.cfi_offset 4, -8
 598              		.cfi_offset 14, -4
 599 0002 0446     		mov	r4, r0
 748:Library/APM32F10x_StdPeriphDriver/src/apm32f10x_fmc.c ****     FMC_STATUS_T status = FMC_STATUS_COMPLETE;
 600              		.loc 1 748 5 is_stmt 1 view .LVU103
 601              	.LVL16:
 749:Library/APM32F10x_StdPeriphDriver/src/apm32f10x_fmc.c **** 
 750:Library/APM32F10x_StdPeriphDriver/src/apm32f10x_fmc.c ****     /** Check for the Flash Status */
 751:Library/APM32F10x_StdPeriphDriver/src/apm32f10x_fmc.c ****     status = FMC_ReadStatus();
 602              		.loc 1 751 5 view .LVU104
 603              		.loc 1 751 14 is_stmt 0 view .LVU105
 604 0004 FFF7FEFF 		bl	FMC_ReadStatus
 605              	.LVL17:
 752:Library/APM32F10x_StdPeriphDriver/src/apm32f10x_fmc.c **** 
 753:Library/APM32F10x_StdPeriphDriver/src/apm32f10x_fmc.c ****     /** Wait for a Flash operation to complete or a TIMEOUT to occur */
 754:Library/APM32F10x_StdPeriphDriver/src/apm32f10x_fmc.c ****     while((status == FMC_STATUS_BUSY) && (timeOut !=0))
 606              		.loc 1 754 5 is_stmt 1 view .LVU106
 607              		.loc 1 754 10 is_stmt 0 view .LVU107
 608 0008 02E0     		b	.L65
 609              	.L67:
 755:Library/APM32F10x_StdPeriphDriver/src/apm32f10x_fmc.c ****     {
 756:Library/APM32F10x_StdPeriphDriver/src/apm32f10x_fmc.c ****         status = FMC_ReadStatus();
 610              		.loc 1 756 9 is_stmt 1 view .LVU108
 611              		.loc 1 756 18 is_stmt 0 view .LVU109
 612 000a FFF7FEFF 		bl	FMC_ReadStatus
 613              	.LVL18:
 757:Library/APM32F10x_StdPeriphDriver/src/apm32f10x_fmc.c ****         timeOut--;
 614              		.loc 1 757 9 is_stmt 1 view .LVU110
 615              		.loc 1 757 16 is_stmt 0 view .LVU111
 616 000e 013C     		subs	r4, r4, #1
 617              	.LVL19:
 618              	.L65:
 754:Library/APM32F10x_StdPeriphDriver/src/apm32f10x_fmc.c ****     {
 619              		.loc 1 754 10 is_stmt 1 view .LVU112
 620 0010 0128     		cmp	r0, #1
 621 0012 01D1     		bne	.L66
 754:Library/APM32F10x_StdPeriphDriver/src/apm32f10x_fmc.c ****     {
 622              		.loc 1 754 39 is_stmt 0 discriminator 1 view .LVU113
 623 0014 002C     		cmp	r4, #0
 624 0016 F8D1     		bne	.L67
 625              	.L66:
 758:Library/APM32F10x_StdPeriphDriver/src/apm32f10x_fmc.c ****     }
 759:Library/APM32F10x_StdPeriphDriver/src/apm32f10x_fmc.c ****     if(timeOut == 0x00)
 626              		.loc 1 759 5 is_stmt 1 view .LVU114
 627              		.loc 1 759 7 is_stmt 0 view .LVU115
 628 0018 04B1     		cbz	r4, .L71
 629              	.LVL20:
 630              	.L68:
 760:Library/APM32F10x_StdPeriphDriver/src/apm32f10x_fmc.c ****     {
 761:Library/APM32F10x_StdPeriphDriver/src/apm32f10x_fmc.c ****         status = FMC_STATUS_TIMEOUT;
 762:Library/APM32F10x_StdPeriphDriver/src/apm32f10x_fmc.c ****     }
ARM GAS  C:\Users\geehy\AppData\Local\Temp\ccqa7o7c.s 			page 25


 763:Library/APM32F10x_StdPeriphDriver/src/apm32f10x_fmc.c ****     return status;
 631              		.loc 1 763 5 is_stmt 1 view .LVU116
 764:Library/APM32F10x_StdPeriphDriver/src/apm32f10x_fmc.c **** }
 632              		.loc 1 764 1 is_stmt 0 view .LVU117
 633 001a 10BD     		pop	{r4, pc}
 634              	.LVL21:
 635              	.L71:
 761:Library/APM32F10x_StdPeriphDriver/src/apm32f10x_fmc.c ****     }
 636              		.loc 1 761 16 view .LVU118
 637 001c 0520     		movs	r0, #5
 638              	.LVL22:
 761:Library/APM32F10x_StdPeriphDriver/src/apm32f10x_fmc.c ****     }
 639              		.loc 1 761 16 view .LVU119
 640 001e FCE7     		b	.L68
 641              		.cfi_endproc
 642              	.LFE91:
 644              		.section	.text.FMC_ErasePage,"ax",%progbits
 645              		.align	1
 646              		.global	FMC_ErasePage
 647              		.syntax unified
 648              		.thumb
 649              		.thumb_func
 651              	FMC_ErasePage:
 652              	.LVL23:
 653              	.LFB72:
 139:Library/APM32F10x_StdPeriphDriver/src/apm32f10x_fmc.c ****     FMC_STATUS_T status = FMC_STATUS_COMPLETE;
 654              		.loc 1 139 1 is_stmt 1 view -0
 655              		.cfi_startproc
 656              		@ args = 0, pretend = 0, frame = 0
 657              		@ frame_needed = 0, uses_anonymous_args = 0
 139:Library/APM32F10x_StdPeriphDriver/src/apm32f10x_fmc.c ****     FMC_STATUS_T status = FMC_STATUS_COMPLETE;
 658              		.loc 1 139 1 is_stmt 0 view .LVU121
 659 0000 38B5     		push	{r3, r4, r5, lr}
 660              	.LCFI1:
 661              		.cfi_def_cfa_offset 16
 662              		.cfi_offset 3, -16
 663              		.cfi_offset 4, -12
 664              		.cfi_offset 5, -8
 665              		.cfi_offset 14, -4
 666 0002 0446     		mov	r4, r0
 140:Library/APM32F10x_StdPeriphDriver/src/apm32f10x_fmc.c **** 
 667              		.loc 1 140 5 is_stmt 1 view .LVU122
 668              	.LVL24:
 142:Library/APM32F10x_StdPeriphDriver/src/apm32f10x_fmc.c ****     if(status == FMC_STATUS_COMPLETE)
 669              		.loc 1 142 5 view .LVU123
 142:Library/APM32F10x_StdPeriphDriver/src/apm32f10x_fmc.c ****     if(status == FMC_STATUS_COMPLETE)
 670              		.loc 1 142 14 is_stmt 0 view .LVU124
 671 0004 4FF43020 		mov	r0, #720896
 672              	.LVL25:
 142:Library/APM32F10x_StdPeriphDriver/src/apm32f10x_fmc.c ****     if(status == FMC_STATUS_COMPLETE)
 673              		.loc 1 142 14 view .LVU125
 674 0008 FFF7FEFF 		bl	FMC_WaitForLastOperation
 675              	.LVL26:
 143:Library/APM32F10x_StdPeriphDriver/src/apm32f10x_fmc.c ****     {
 676              		.loc 1 143 5 is_stmt 1 view .LVU126
 143:Library/APM32F10x_StdPeriphDriver/src/apm32f10x_fmc.c ****     {
 677              		.loc 1 143 7 is_stmt 0 view .LVU127
ARM GAS  C:\Users\geehy\AppData\Local\Temp\ccqa7o7c.s 			page 26


 678 000c 0428     		cmp	r0, #4
 679 000e 00D0     		beq	.L75
 680              	.L73:
 152:Library/APM32F10x_StdPeriphDriver/src/apm32f10x_fmc.c **** }
 681              		.loc 1 152 5 is_stmt 1 view .LVU128
 153:Library/APM32F10x_StdPeriphDriver/src/apm32f10x_fmc.c **** 
 682              		.loc 1 153 1 is_stmt 0 view .LVU129
 683 0010 38BD     		pop	{r3, r4, r5, pc}
 684              	.LVL27:
 685              	.L75:
 145:Library/APM32F10x_StdPeriphDriver/src/apm32f10x_fmc.c ****         FMC->ADDR = pageAddr;
 686              		.loc 1 145 9 is_stmt 1 view .LVU130
 145:Library/APM32F10x_StdPeriphDriver/src/apm32f10x_fmc.c ****         FMC->ADDR = pageAddr;
 687              		.loc 1 145 30 is_stmt 0 view .LVU131
 688 0012 094D     		ldr	r5, .L76
 689 0014 2B69     		ldr	r3, [r5, #16]
 690 0016 43F00203 		orr	r3, r3, #2
 691 001a 2B61     		str	r3, [r5, #16]
 146:Library/APM32F10x_StdPeriphDriver/src/apm32f10x_fmc.c ****         FMC->CTRL2_B.STA = BIT_SET;
 692              		.loc 1 146 9 is_stmt 1 view .LVU132
 146:Library/APM32F10x_StdPeriphDriver/src/apm32f10x_fmc.c ****         FMC->CTRL2_B.STA = BIT_SET;
 693              		.loc 1 146 19 is_stmt 0 view .LVU133
 694 001c 6C61     		str	r4, [r5, #20]
 147:Library/APM32F10x_StdPeriphDriver/src/apm32f10x_fmc.c **** 
 695              		.loc 1 147 9 is_stmt 1 view .LVU134
 147:Library/APM32F10x_StdPeriphDriver/src/apm32f10x_fmc.c **** 
 696              		.loc 1 147 26 is_stmt 0 view .LVU135
 697 001e 2B69     		ldr	r3, [r5, #16]
 698 0020 43F04003 		orr	r3, r3, #64
 699 0024 2B61     		str	r3, [r5, #16]
 149:Library/APM32F10x_StdPeriphDriver/src/apm32f10x_fmc.c ****         FMC->CTRL2_B.PAGEERA = BIT_RESET;
 700              		.loc 1 149 9 is_stmt 1 view .LVU136
 149:Library/APM32F10x_StdPeriphDriver/src/apm32f10x_fmc.c ****         FMC->CTRL2_B.PAGEERA = BIT_RESET;
 701              		.loc 1 149 18 is_stmt 0 view .LVU137
 702 0026 4FF43020 		mov	r0, #720896
 703              	.LVL28:
 149:Library/APM32F10x_StdPeriphDriver/src/apm32f10x_fmc.c ****         FMC->CTRL2_B.PAGEERA = BIT_RESET;
 704              		.loc 1 149 18 view .LVU138
 705 002a FFF7FEFF 		bl	FMC_WaitForLastOperation
 706              	.LVL29:
 150:Library/APM32F10x_StdPeriphDriver/src/apm32f10x_fmc.c ****     }
 707              		.loc 1 150 9 is_stmt 1 view .LVU139
 150:Library/APM32F10x_StdPeriphDriver/src/apm32f10x_fmc.c ****     }
 708              		.loc 1 150 30 is_stmt 0 view .LVU140
 709 002e 2B69     		ldr	r3, [r5, #16]
 710 0030 6FF34103 		bfc	r3, #1, #1
 711 0034 2B61     		str	r3, [r5, #16]
 712 0036 EBE7     		b	.L73
 713              	.L77:
 714              		.align	2
 715              	.L76:
 716 0038 00200240 		.word	1073881088
 717              		.cfi_endproc
 718              	.LFE72:
 720              		.section	.text.FMC_EraseAllPage,"ax",%progbits
 721              		.align	1
 722              		.global	FMC_EraseAllPage
ARM GAS  C:\Users\geehy\AppData\Local\Temp\ccqa7o7c.s 			page 27


 723              		.syntax unified
 724              		.thumb
 725              		.thumb_func
 727              	FMC_EraseAllPage:
 728              	.LFB73:
 167:Library/APM32F10x_StdPeriphDriver/src/apm32f10x_fmc.c ****     FMC_STATUS_T status = FMC_STATUS_COMPLETE;
 729              		.loc 1 167 1 is_stmt 1 view -0
 730              		.cfi_startproc
 731              		@ args = 0, pretend = 0, frame = 0
 732              		@ frame_needed = 0, uses_anonymous_args = 0
 733 0000 10B5     		push	{r4, lr}
 734              	.LCFI2:
 735              		.cfi_def_cfa_offset 8
 736              		.cfi_offset 4, -8
 737              		.cfi_offset 14, -4
 168:Library/APM32F10x_StdPeriphDriver/src/apm32f10x_fmc.c **** 
 738              		.loc 1 168 5 view .LVU142
 739              	.LVL30:
 170:Library/APM32F10x_StdPeriphDriver/src/apm32f10x_fmc.c ****     if(status == FMC_STATUS_COMPLETE)
 740              		.loc 1 170 5 view .LVU143
 170:Library/APM32F10x_StdPeriphDriver/src/apm32f10x_fmc.c ****     if(status == FMC_STATUS_COMPLETE)
 741              		.loc 1 170 14 is_stmt 0 view .LVU144
 742 0002 4FF43020 		mov	r0, #720896
 743 0006 FFF7FEFF 		bl	FMC_WaitForLastOperation
 744              	.LVL31:
 171:Library/APM32F10x_StdPeriphDriver/src/apm32f10x_fmc.c ****     {
 745              		.loc 1 171 5 is_stmt 1 view .LVU145
 171:Library/APM32F10x_StdPeriphDriver/src/apm32f10x_fmc.c ****     {
 746              		.loc 1 171 7 is_stmt 0 view .LVU146
 747 000a 0428     		cmp	r0, #4
 748 000c 00D0     		beq	.L81
 749              	.L79:
 179:Library/APM32F10x_StdPeriphDriver/src/apm32f10x_fmc.c **** }
 750              		.loc 1 179 5 is_stmt 1 view .LVU147
 180:Library/APM32F10x_StdPeriphDriver/src/apm32f10x_fmc.c **** 
 751              		.loc 1 180 1 is_stmt 0 view .LVU148
 752 000e 10BD     		pop	{r4, pc}
 753              	.L81:
 173:Library/APM32F10x_StdPeriphDriver/src/apm32f10x_fmc.c ****         FMC->CTRL2_B.STA = BIT_SET;
 754              		.loc 1 173 9 is_stmt 1 view .LVU149
 173:Library/APM32F10x_StdPeriphDriver/src/apm32f10x_fmc.c ****         FMC->CTRL2_B.STA = BIT_SET;
 755              		.loc 1 173 30 is_stmt 0 view .LVU150
 756 0010 084C     		ldr	r4, .L82
 757 0012 2369     		ldr	r3, [r4, #16]
 758 0014 43F00403 		orr	r3, r3, #4
 759 0018 2361     		str	r3, [r4, #16]
 174:Library/APM32F10x_StdPeriphDriver/src/apm32f10x_fmc.c **** 
 760              		.loc 1 174 9 is_stmt 1 view .LVU151
 174:Library/APM32F10x_StdPeriphDriver/src/apm32f10x_fmc.c **** 
 761              		.loc 1 174 26 is_stmt 0 view .LVU152
 762 001a 2369     		ldr	r3, [r4, #16]
 763 001c 43F04003 		orr	r3, r3, #64
 764 0020 2361     		str	r3, [r4, #16]
 176:Library/APM32F10x_StdPeriphDriver/src/apm32f10x_fmc.c ****         FMC->CTRL2_B.MASSERA = BIT_RESET;
 765              		.loc 1 176 9 is_stmt 1 view .LVU153
 176:Library/APM32F10x_StdPeriphDriver/src/apm32f10x_fmc.c ****         FMC->CTRL2_B.MASSERA = BIT_RESET;
 766              		.loc 1 176 18 is_stmt 0 view .LVU154
ARM GAS  C:\Users\geehy\AppData\Local\Temp\ccqa7o7c.s 			page 28


 767 0022 4FF43020 		mov	r0, #720896
 768              	.LVL32:
 176:Library/APM32F10x_StdPeriphDriver/src/apm32f10x_fmc.c ****         FMC->CTRL2_B.MASSERA = BIT_RESET;
 769              		.loc 1 176 18 view .LVU155
 770 0026 FFF7FEFF 		bl	FMC_WaitForLastOperation
 771              	.LVL33:
 177:Library/APM32F10x_StdPeriphDriver/src/apm32f10x_fmc.c ****     }
 772              		.loc 1 177 9 is_stmt 1 view .LVU156
 177:Library/APM32F10x_StdPeriphDriver/src/apm32f10x_fmc.c ****     }
 773              		.loc 1 177 30 is_stmt 0 view .LVU157
 774 002a 2369     		ldr	r3, [r4, #16]
 775 002c 6FF38203 		bfc	r3, #2, #1
 776 0030 2361     		str	r3, [r4, #16]
 777 0032 ECE7     		b	.L79
 778              	.L83:
 779              		.align	2
 780              	.L82:
 781 0034 00200240 		.word	1073881088
 782              		.cfi_endproc
 783              	.LFE73:
 785              		.section	.text.FMC_EraseOptionBytes,"ax",%progbits
 786              		.align	1
 787              		.global	FMC_EraseOptionBytes
 788              		.syntax unified
 789              		.thumb
 790              		.thumb_func
 792              	FMC_EraseOptionBytes:
 793              	.LFB74:
 194:Library/APM32F10x_StdPeriphDriver/src/apm32f10x_fmc.c ****     uint16_t rdtemp = 0x00A5;
 794              		.loc 1 194 1 is_stmt 1 view -0
 795              		.cfi_startproc
 796              		@ args = 0, pretend = 0, frame = 0
 797              		@ frame_needed = 0, uses_anonymous_args = 0
 798 0000 10B5     		push	{r4, lr}
 799              	.LCFI3:
 800              		.cfi_def_cfa_offset 8
 801              		.cfi_offset 4, -8
 802              		.cfi_offset 14, -4
 195:Library/APM32F10x_StdPeriphDriver/src/apm32f10x_fmc.c ****     FMC_STATUS_T status = FMC_STATUS_COMPLETE;
 803              		.loc 1 195 5 view .LVU159
 804              	.LVL34:
 196:Library/APM32F10x_StdPeriphDriver/src/apm32f10x_fmc.c **** 
 805              		.loc 1 196 5 view .LVU160
 198:Library/APM32F10x_StdPeriphDriver/src/apm32f10x_fmc.c ****     {
 806              		.loc 1 198 5 view .LVU161
 198:Library/APM32F10x_StdPeriphDriver/src/apm32f10x_fmc.c ****     {
 807              		.loc 1 198 8 is_stmt 0 view .LVU162
 808 0002 FFF7FEFF 		bl	FMC_GetReadProtectionStatus
 809              	.LVL35:
 198:Library/APM32F10x_StdPeriphDriver/src/apm32f10x_fmc.c ****     {
 810              		.loc 1 198 7 view .LVU163
 811 0006 38B9     		cbnz	r0, .L88
 195:Library/APM32F10x_StdPeriphDriver/src/apm32f10x_fmc.c ****     FMC_STATUS_T status = FMC_STATUS_COMPLETE;
 812              		.loc 1 195 14 view .LVU164
 813 0008 A524     		movs	r4, #165
 814              	.L85:
 815              	.LVL36:
ARM GAS  C:\Users\geehy\AppData\Local\Temp\ccqa7o7c.s 			page 29


 202:Library/APM32F10x_StdPeriphDriver/src/apm32f10x_fmc.c ****     if(status == FMC_STATUS_COMPLETE)
 816              		.loc 1 202 5 is_stmt 1 view .LVU165
 202:Library/APM32F10x_StdPeriphDriver/src/apm32f10x_fmc.c ****     if(status == FMC_STATUS_COMPLETE)
 817              		.loc 1 202 14 is_stmt 0 view .LVU166
 818 000a 4FF43020 		mov	r0, #720896
 819 000e FFF7FEFF 		bl	FMC_WaitForLastOperation
 820              	.LVL37:
 203:Library/APM32F10x_StdPeriphDriver/src/apm32f10x_fmc.c ****     {
 821              		.loc 1 203 5 is_stmt 1 view .LVU167
 203:Library/APM32F10x_StdPeriphDriver/src/apm32f10x_fmc.c ****     {
 822              		.loc 1 203 7 is_stmt 0 view .LVU168
 823 0012 0428     		cmp	r0, #4
 824 0014 02D0     		beq	.L90
 825              	.L86:
 229:Library/APM32F10x_StdPeriphDriver/src/apm32f10x_fmc.c **** }
 826              		.loc 1 229 5 is_stmt 1 view .LVU169
 230:Library/APM32F10x_StdPeriphDriver/src/apm32f10x_fmc.c **** 
 827              		.loc 1 230 1 is_stmt 0 view .LVU170
 828 0016 10BD     		pop	{r4, pc}
 829              	.LVL38:
 830              	.L88:
 200:Library/APM32F10x_StdPeriphDriver/src/apm32f10x_fmc.c ****     }
 831              		.loc 1 200 16 view .LVU171
 832 0018 0024     		movs	r4, #0
 833 001a F6E7     		b	.L85
 834              	.LVL39:
 835              	.L90:
 205:Library/APM32F10x_StdPeriphDriver/src/apm32f10x_fmc.c ****         FMC->OBKEY = 0xCDEF89AB;
 836              		.loc 1 205 9 is_stmt 1 view .LVU172
 205:Library/APM32F10x_StdPeriphDriver/src/apm32f10x_fmc.c ****         FMC->OBKEY = 0xCDEF89AB;
 837              		.loc 1 205 20 is_stmt 0 view .LVU173
 838 001c 194B     		ldr	r3, .L92
 839 001e 1A4A     		ldr	r2, .L92+4
 840 0020 9A60     		str	r2, [r3, #8]
 206:Library/APM32F10x_StdPeriphDriver/src/apm32f10x_fmc.c **** 
 841              		.loc 1 206 9 is_stmt 1 view .LVU174
 206:Library/APM32F10x_StdPeriphDriver/src/apm32f10x_fmc.c **** 
 842              		.loc 1 206 20 is_stmt 0 view .LVU175
 843 0022 02F18832 		add	r2, r2, #-2004318072
 844 0026 9A60     		str	r2, [r3, #8]
 208:Library/APM32F10x_StdPeriphDriver/src/apm32f10x_fmc.c ****         FMC->CTRL2_B.STA = BIT_SET;
 845              		.loc 1 208 9 is_stmt 1 view .LVU176
 208:Library/APM32F10x_StdPeriphDriver/src/apm32f10x_fmc.c ****         FMC->CTRL2_B.STA = BIT_SET;
 846              		.loc 1 208 26 is_stmt 0 view .LVU177
 847 0028 1A69     		ldr	r2, [r3, #16]
 848 002a 42F02002 		orr	r2, r2, #32
 849 002e 1A61     		str	r2, [r3, #16]
 209:Library/APM32F10x_StdPeriphDriver/src/apm32f10x_fmc.c **** 
 850              		.loc 1 209 9 is_stmt 1 view .LVU178
 209:Library/APM32F10x_StdPeriphDriver/src/apm32f10x_fmc.c **** 
 851              		.loc 1 209 26 is_stmt 0 view .LVU179
 852 0030 1A69     		ldr	r2, [r3, #16]
 853 0032 42F04002 		orr	r2, r2, #64
 854 0036 1A61     		str	r2, [r3, #16]
 211:Library/APM32F10x_StdPeriphDriver/src/apm32f10x_fmc.c **** 
 855              		.loc 1 211 9 is_stmt 1 view .LVU180
 211:Library/APM32F10x_StdPeriphDriver/src/apm32f10x_fmc.c **** 
ARM GAS  C:\Users\geehy\AppData\Local\Temp\ccqa7o7c.s 			page 30


 856              		.loc 1 211 18 is_stmt 0 view .LVU181
 857 0038 4FF43020 		mov	r0, #720896
 858              	.LVL40:
 211:Library/APM32F10x_StdPeriphDriver/src/apm32f10x_fmc.c **** 
 859              		.loc 1 211 18 view .LVU182
 860 003c FFF7FEFF 		bl	FMC_WaitForLastOperation
 861              	.LVL41:
 213:Library/APM32F10x_StdPeriphDriver/src/apm32f10x_fmc.c ****         {
 862              		.loc 1 213 9 is_stmt 1 view .LVU183
 213:Library/APM32F10x_StdPeriphDriver/src/apm32f10x_fmc.c ****         {
 863              		.loc 1 213 11 is_stmt 0 view .LVU184
 864 0040 0428     		cmp	r0, #4
 865 0042 07D0     		beq	.L91
 224:Library/APM32F10x_StdPeriphDriver/src/apm32f10x_fmc.c ****         {
 866              		.loc 1 224 14 is_stmt 1 view .LVU185
 224:Library/APM32F10x_StdPeriphDriver/src/apm32f10x_fmc.c ****         {
 867              		.loc 1 224 16 is_stmt 0 view .LVU186
 868 0044 0528     		cmp	r0, #5
 869 0046 E6D0     		beq	.L86
 226:Library/APM32F10x_StdPeriphDriver/src/apm32f10x_fmc.c ****         }
 870              		.loc 1 226 13 is_stmt 1 view .LVU187
 226:Library/APM32F10x_StdPeriphDriver/src/apm32f10x_fmc.c ****         }
 871              		.loc 1 226 30 is_stmt 0 view .LVU188
 872 0048 0E4B     		ldr	r3, .L92
 873 004a 1A69     		ldr	r2, [r3, #16]
 874 004c 6FF30412 		bfc	r2, #4, #1
 875 0050 1A61     		str	r2, [r3, #16]
 876 0052 E0E7     		b	.L86
 877              	.L91:
 215:Library/APM32F10x_StdPeriphDriver/src/apm32f10x_fmc.c ****             FMC->CTRL2_B.OBP = BIT_SET;
 878              		.loc 1 215 13 is_stmt 1 view .LVU189
 215:Library/APM32F10x_StdPeriphDriver/src/apm32f10x_fmc.c ****             FMC->CTRL2_B.OBP = BIT_SET;
 879              		.loc 1 215 30 is_stmt 0 view .LVU190
 880 0054 0B4B     		ldr	r3, .L92
 881 0056 1A69     		ldr	r2, [r3, #16]
 882 0058 6FF34512 		bfc	r2, #5, #1
 883 005c 1A61     		str	r2, [r3, #16]
 216:Library/APM32F10x_StdPeriphDriver/src/apm32f10x_fmc.c ****             OB->RDP = rdtemp;
 884              		.loc 1 216 13 is_stmt 1 view .LVU191
 216:Library/APM32F10x_StdPeriphDriver/src/apm32f10x_fmc.c ****             OB->RDP = rdtemp;
 885              		.loc 1 216 30 is_stmt 0 view .LVU192
 886 005e 1A69     		ldr	r2, [r3, #16]
 887 0060 42F01002 		orr	r2, r2, #16
 888 0064 1A61     		str	r2, [r3, #16]
 217:Library/APM32F10x_StdPeriphDriver/src/apm32f10x_fmc.c ****             status = FMC_WaitForLastOperation(0x000B0000);
 889              		.loc 1 217 13 is_stmt 1 view .LVU193
 217:Library/APM32F10x_StdPeriphDriver/src/apm32f10x_fmc.c ****             status = FMC_WaitForLastOperation(0x000B0000);
 890              		.loc 1 217 21 is_stmt 0 view .LVU194
 891 0066 094B     		ldr	r3, .L92+8
 892 0068 1C80     		strh	r4, [r3]	@ movhi
 218:Library/APM32F10x_StdPeriphDriver/src/apm32f10x_fmc.c ****             if(status != FMC_STATUS_TIMEOUT)
 893              		.loc 1 218 13 is_stmt 1 view .LVU195
 218:Library/APM32F10x_StdPeriphDriver/src/apm32f10x_fmc.c ****             if(status != FMC_STATUS_TIMEOUT)
 894              		.loc 1 218 22 is_stmt 0 view .LVU196
 895 006a 4FF43020 		mov	r0, #720896
 896              	.LVL42:
 218:Library/APM32F10x_StdPeriphDriver/src/apm32f10x_fmc.c ****             if(status != FMC_STATUS_TIMEOUT)
ARM GAS  C:\Users\geehy\AppData\Local\Temp\ccqa7o7c.s 			page 31


 897              		.loc 1 218 22 view .LVU197
 898 006e FFF7FEFF 		bl	FMC_WaitForLastOperation
 899              	.LVL43:
 219:Library/APM32F10x_StdPeriphDriver/src/apm32f10x_fmc.c ****             {
 900              		.loc 1 219 13 is_stmt 1 view .LVU198
 219:Library/APM32F10x_StdPeriphDriver/src/apm32f10x_fmc.c ****             {
 901              		.loc 1 219 15 is_stmt 0 view .LVU199
 902 0072 0528     		cmp	r0, #5
 903 0074 CFD0     		beq	.L86
 221:Library/APM32F10x_StdPeriphDriver/src/apm32f10x_fmc.c ****             }
 904              		.loc 1 221 17 is_stmt 1 view .LVU200
 221:Library/APM32F10x_StdPeriphDriver/src/apm32f10x_fmc.c ****             }
 905              		.loc 1 221 34 is_stmt 0 view .LVU201
 906 0076 034B     		ldr	r3, .L92
 907 0078 1A69     		ldr	r2, [r3, #16]
 908 007a 6FF30412 		bfc	r2, #4, #1
 909 007e 1A61     		str	r2, [r3, #16]
 910 0080 C9E7     		b	.L86
 911              	.L93:
 912 0082 00BF     		.align	2
 913              	.L92:
 914 0084 00200240 		.word	1073881088
 915 0088 23016745 		.word	1164378403
 916 008c 00F8FF1F 		.word	536868864
 917              		.cfi_endproc
 918              	.LFE74:
 920              		.section	.text.FMC_ProgramWord,"ax",%progbits
 921              		.align	1
 922              		.global	FMC_ProgramWord
 923              		.syntax unified
 924              		.thumb
 925              		.thumb_func
 927              	FMC_ProgramWord:
 928              	.LVL44:
 929              	.LFB75:
 246:Library/APM32F10x_StdPeriphDriver/src/apm32f10x_fmc.c ****     FMC_STATUS_T status = FMC_STATUS_COMPLETE;
 930              		.loc 1 246 1 is_stmt 1 view -0
 931              		.cfi_startproc
 932              		@ args = 0, pretend = 0, frame = 8
 933              		@ frame_needed = 0, uses_anonymous_args = 0
 246:Library/APM32F10x_StdPeriphDriver/src/apm32f10x_fmc.c ****     FMC_STATUS_T status = FMC_STATUS_COMPLETE;
 934              		.loc 1 246 1 is_stmt 0 view .LVU203
 935 0000 30B5     		push	{r4, r5, lr}
 936              	.LCFI4:
 937              		.cfi_def_cfa_offset 12
 938              		.cfi_offset 4, -12
 939              		.cfi_offset 5, -8
 940              		.cfi_offset 14, -4
 941 0002 83B0     		sub	sp, sp, #12
 942              	.LCFI5:
 943              		.cfi_def_cfa_offset 24
 944 0004 0546     		mov	r5, r0
 945 0006 0C46     		mov	r4, r1
 247:Library/APM32F10x_StdPeriphDriver/src/apm32f10x_fmc.c ****     __IOM uint32_t temp = 0;
 946              		.loc 1 247 5 is_stmt 1 view .LVU204
 947              	.LVL45:
 248:Library/APM32F10x_StdPeriphDriver/src/apm32f10x_fmc.c **** 
ARM GAS  C:\Users\geehy\AppData\Local\Temp\ccqa7o7c.s 			page 32


 948              		.loc 1 248 5 view .LVU205
 248:Library/APM32F10x_StdPeriphDriver/src/apm32f10x_fmc.c **** 
 949              		.loc 1 248 20 is_stmt 0 view .LVU206
 950 0008 0023     		movs	r3, #0
 951 000a 0193     		str	r3, [sp, #4]
 251:Library/APM32F10x_StdPeriphDriver/src/apm32f10x_fmc.c ****     #endif
 952              		.loc 1 251 11 is_stmt 1 view .LVU207
 953              	.LVL46:
 954              	.LBB10:
 955              	.LBI10:
 956              		.file 2 "Library/CMSIS/Include/cmsis_gcc.h"
   1:Library/CMSIS/Include/cmsis_gcc.h **** /**************************************************************************//**
   2:Library/CMSIS/Include/cmsis_gcc.h ****  * @file     cmsis_gcc.h
   3:Library/CMSIS/Include/cmsis_gcc.h ****  * @brief    CMSIS compiler GCC header file
   4:Library/CMSIS/Include/cmsis_gcc.h ****  * @version  V5.0.4
   5:Library/CMSIS/Include/cmsis_gcc.h ****  * @date     09. April 2018
   6:Library/CMSIS/Include/cmsis_gcc.h ****  ******************************************************************************/
   7:Library/CMSIS/Include/cmsis_gcc.h **** /*
   8:Library/CMSIS/Include/cmsis_gcc.h ****  * Copyright (c) 2009-2018 Arm Limited. All rights reserved.
   9:Library/CMSIS/Include/cmsis_gcc.h ****  *
  10:Library/CMSIS/Include/cmsis_gcc.h ****  * SPDX-License-Identifier: Apache-2.0
  11:Library/CMSIS/Include/cmsis_gcc.h ****  *
  12:Library/CMSIS/Include/cmsis_gcc.h ****  * Licensed under the Apache License, Version 2.0 (the License); you may
  13:Library/CMSIS/Include/cmsis_gcc.h ****  * not use this file except in compliance with the License.
  14:Library/CMSIS/Include/cmsis_gcc.h ****  * You may obtain a copy of the License at
  15:Library/CMSIS/Include/cmsis_gcc.h ****  *
  16:Library/CMSIS/Include/cmsis_gcc.h ****  * www.apache.org/licenses/LICENSE-2.0
  17:Library/CMSIS/Include/cmsis_gcc.h ****  *
  18:Library/CMSIS/Include/cmsis_gcc.h ****  * Unless required by applicable law or agreed to in writing, software
  19:Library/CMSIS/Include/cmsis_gcc.h ****  * distributed under the License is distributed on an AS IS BASIS, WITHOUT
  20:Library/CMSIS/Include/cmsis_gcc.h ****  * WARRANTIES OR CONDITIONS OF ANY KIND, either express or implied.
  21:Library/CMSIS/Include/cmsis_gcc.h ****  * See the License for the specific language governing permissions and
  22:Library/CMSIS/Include/cmsis_gcc.h ****  * limitations under the License.
  23:Library/CMSIS/Include/cmsis_gcc.h ****  */
  24:Library/CMSIS/Include/cmsis_gcc.h **** 
  25:Library/CMSIS/Include/cmsis_gcc.h **** #ifndef __CMSIS_GCC_H
  26:Library/CMSIS/Include/cmsis_gcc.h **** #define __CMSIS_GCC_H
  27:Library/CMSIS/Include/cmsis_gcc.h **** 
  28:Library/CMSIS/Include/cmsis_gcc.h **** /* ignore some GCC warnings */
  29:Library/CMSIS/Include/cmsis_gcc.h **** #pragma GCC diagnostic push
  30:Library/CMSIS/Include/cmsis_gcc.h **** #pragma GCC diagnostic ignored "-Wsign-conversion"
  31:Library/CMSIS/Include/cmsis_gcc.h **** #pragma GCC diagnostic ignored "-Wconversion"
  32:Library/CMSIS/Include/cmsis_gcc.h **** #pragma GCC diagnostic ignored "-Wunused-parameter"
  33:Library/CMSIS/Include/cmsis_gcc.h **** 
  34:Library/CMSIS/Include/cmsis_gcc.h **** /* Fallback for __has_builtin */
  35:Library/CMSIS/Include/cmsis_gcc.h **** #ifndef __has_builtin
  36:Library/CMSIS/Include/cmsis_gcc.h ****   #define __has_builtin(x) (0)
  37:Library/CMSIS/Include/cmsis_gcc.h **** #endif
  38:Library/CMSIS/Include/cmsis_gcc.h **** 
  39:Library/CMSIS/Include/cmsis_gcc.h **** /* CMSIS compiler specific defines */
  40:Library/CMSIS/Include/cmsis_gcc.h **** #ifndef   __ASM
  41:Library/CMSIS/Include/cmsis_gcc.h ****   #define __ASM                                  __asm
  42:Library/CMSIS/Include/cmsis_gcc.h **** #endif
  43:Library/CMSIS/Include/cmsis_gcc.h **** #ifndef   __INLINE
  44:Library/CMSIS/Include/cmsis_gcc.h ****   #define __INLINE                               inline
  45:Library/CMSIS/Include/cmsis_gcc.h **** #endif
  46:Library/CMSIS/Include/cmsis_gcc.h **** #ifndef   __STATIC_INLINE
ARM GAS  C:\Users\geehy\AppData\Local\Temp\ccqa7o7c.s 			page 33


  47:Library/CMSIS/Include/cmsis_gcc.h ****   #define __STATIC_INLINE                        static inline
  48:Library/CMSIS/Include/cmsis_gcc.h **** #endif
  49:Library/CMSIS/Include/cmsis_gcc.h **** #ifndef   __STATIC_FORCEINLINE                 
  50:Library/CMSIS/Include/cmsis_gcc.h ****   #define __STATIC_FORCEINLINE                   __attribute__((always_inline)) static inline
  51:Library/CMSIS/Include/cmsis_gcc.h **** #endif                                           
  52:Library/CMSIS/Include/cmsis_gcc.h **** #ifndef   __NO_RETURN
  53:Library/CMSIS/Include/cmsis_gcc.h ****   #define __NO_RETURN                            __attribute__((__noreturn__))
  54:Library/CMSIS/Include/cmsis_gcc.h **** #endif
  55:Library/CMSIS/Include/cmsis_gcc.h **** #ifndef   __USED
  56:Library/CMSIS/Include/cmsis_gcc.h ****   #define __USED                                 __attribute__((used))
  57:Library/CMSIS/Include/cmsis_gcc.h **** #endif
  58:Library/CMSIS/Include/cmsis_gcc.h **** #ifndef   __WEAK
  59:Library/CMSIS/Include/cmsis_gcc.h ****   #define __WEAK                                 __attribute__((weak))
  60:Library/CMSIS/Include/cmsis_gcc.h **** #endif
  61:Library/CMSIS/Include/cmsis_gcc.h **** #ifndef   __PACKED
  62:Library/CMSIS/Include/cmsis_gcc.h ****   #define __PACKED                               __attribute__((packed, aligned(1)))
  63:Library/CMSIS/Include/cmsis_gcc.h **** #endif
  64:Library/CMSIS/Include/cmsis_gcc.h **** #ifndef   __PACKED_STRUCT
  65:Library/CMSIS/Include/cmsis_gcc.h ****   #define __PACKED_STRUCT                        struct __attribute__((packed, aligned(1)))
  66:Library/CMSIS/Include/cmsis_gcc.h **** #endif
  67:Library/CMSIS/Include/cmsis_gcc.h **** #ifndef   __PACKED_UNION
  68:Library/CMSIS/Include/cmsis_gcc.h ****   #define __PACKED_UNION                         union __attribute__((packed, aligned(1)))
  69:Library/CMSIS/Include/cmsis_gcc.h **** #endif
  70:Library/CMSIS/Include/cmsis_gcc.h **** #ifndef   __UNALIGNED_UINT32        /* deprecated */
  71:Library/CMSIS/Include/cmsis_gcc.h ****   #pragma GCC diagnostic push
  72:Library/CMSIS/Include/cmsis_gcc.h ****   #pragma GCC diagnostic ignored "-Wpacked"
  73:Library/CMSIS/Include/cmsis_gcc.h ****   #pragma GCC diagnostic ignored "-Wattributes"
  74:Library/CMSIS/Include/cmsis_gcc.h ****   struct __attribute__((packed)) T_UINT32 { uint32_t v; };
  75:Library/CMSIS/Include/cmsis_gcc.h ****   #pragma GCC diagnostic pop
  76:Library/CMSIS/Include/cmsis_gcc.h ****   #define __UNALIGNED_UINT32(x)                  (((struct T_UINT32 *)(x))->v)
  77:Library/CMSIS/Include/cmsis_gcc.h **** #endif
  78:Library/CMSIS/Include/cmsis_gcc.h **** #ifndef   __UNALIGNED_UINT16_WRITE
  79:Library/CMSIS/Include/cmsis_gcc.h ****   #pragma GCC diagnostic push
  80:Library/CMSIS/Include/cmsis_gcc.h ****   #pragma GCC diagnostic ignored "-Wpacked"
  81:Library/CMSIS/Include/cmsis_gcc.h ****   #pragma GCC diagnostic ignored "-Wattributes"
  82:Library/CMSIS/Include/cmsis_gcc.h ****   __PACKED_STRUCT T_UINT16_WRITE { uint16_t v; };
  83:Library/CMSIS/Include/cmsis_gcc.h ****   #pragma GCC diagnostic pop
  84:Library/CMSIS/Include/cmsis_gcc.h ****   #define __UNALIGNED_UINT16_WRITE(addr, val)    (void)((((struct T_UINT16_WRITE *)(void *)(addr))-
  85:Library/CMSIS/Include/cmsis_gcc.h **** #endif
  86:Library/CMSIS/Include/cmsis_gcc.h **** #ifndef   __UNALIGNED_UINT16_READ
  87:Library/CMSIS/Include/cmsis_gcc.h ****   #pragma GCC diagnostic push
  88:Library/CMSIS/Include/cmsis_gcc.h ****   #pragma GCC diagnostic ignored "-Wpacked"
  89:Library/CMSIS/Include/cmsis_gcc.h ****   #pragma GCC diagnostic ignored "-Wattributes"
  90:Library/CMSIS/Include/cmsis_gcc.h ****   __PACKED_STRUCT T_UINT16_READ { uint16_t v; };
  91:Library/CMSIS/Include/cmsis_gcc.h ****   #pragma GCC diagnostic pop
  92:Library/CMSIS/Include/cmsis_gcc.h ****   #define __UNALIGNED_UINT16_READ(addr)          (((const struct T_UINT16_READ *)(const void *)(add
  93:Library/CMSIS/Include/cmsis_gcc.h **** #endif
  94:Library/CMSIS/Include/cmsis_gcc.h **** #ifndef   __UNALIGNED_UINT32_WRITE
  95:Library/CMSIS/Include/cmsis_gcc.h ****   #pragma GCC diagnostic push
  96:Library/CMSIS/Include/cmsis_gcc.h ****   #pragma GCC diagnostic ignored "-Wpacked"
  97:Library/CMSIS/Include/cmsis_gcc.h ****   #pragma GCC diagnostic ignored "-Wattributes"
  98:Library/CMSIS/Include/cmsis_gcc.h ****   __PACKED_STRUCT T_UINT32_WRITE { uint32_t v; };
  99:Library/CMSIS/Include/cmsis_gcc.h ****   #pragma GCC diagnostic pop
 100:Library/CMSIS/Include/cmsis_gcc.h ****   #define __UNALIGNED_UINT32_WRITE(addr, val)    (void)((((struct T_UINT32_WRITE *)(void *)(addr))-
 101:Library/CMSIS/Include/cmsis_gcc.h **** #endif
 102:Library/CMSIS/Include/cmsis_gcc.h **** #ifndef   __UNALIGNED_UINT32_READ
 103:Library/CMSIS/Include/cmsis_gcc.h ****   #pragma GCC diagnostic push
ARM GAS  C:\Users\geehy\AppData\Local\Temp\ccqa7o7c.s 			page 34


 104:Library/CMSIS/Include/cmsis_gcc.h ****   #pragma GCC diagnostic ignored "-Wpacked"
 105:Library/CMSIS/Include/cmsis_gcc.h ****   #pragma GCC diagnostic ignored "-Wattributes"
 106:Library/CMSIS/Include/cmsis_gcc.h ****   __PACKED_STRUCT T_UINT32_READ { uint32_t v; };
 107:Library/CMSIS/Include/cmsis_gcc.h ****   #pragma GCC diagnostic pop
 108:Library/CMSIS/Include/cmsis_gcc.h ****   #define __UNALIGNED_UINT32_READ(addr)          (((const struct T_UINT32_READ *)(const void *)(add
 109:Library/CMSIS/Include/cmsis_gcc.h **** #endif
 110:Library/CMSIS/Include/cmsis_gcc.h **** #ifndef   __ALIGNED
 111:Library/CMSIS/Include/cmsis_gcc.h ****   #define __ALIGNED(x)                           __attribute__((aligned(x)))
 112:Library/CMSIS/Include/cmsis_gcc.h **** #endif
 113:Library/CMSIS/Include/cmsis_gcc.h **** #ifndef   __RESTRICT
 114:Library/CMSIS/Include/cmsis_gcc.h ****   #define __RESTRICT                             __restrict
 115:Library/CMSIS/Include/cmsis_gcc.h **** #endif
 116:Library/CMSIS/Include/cmsis_gcc.h **** 
 117:Library/CMSIS/Include/cmsis_gcc.h **** 
 118:Library/CMSIS/Include/cmsis_gcc.h **** /* ###########################  Core Function Access  ########################### */
 119:Library/CMSIS/Include/cmsis_gcc.h **** /** \ingroup  CMSIS_Core_FunctionInterface
 120:Library/CMSIS/Include/cmsis_gcc.h ****     \defgroup CMSIS_Core_RegAccFunctions CMSIS Core Register Access Functions
 121:Library/CMSIS/Include/cmsis_gcc.h ****   @{
 122:Library/CMSIS/Include/cmsis_gcc.h ****  */
 123:Library/CMSIS/Include/cmsis_gcc.h **** 
 124:Library/CMSIS/Include/cmsis_gcc.h **** /**
 125:Library/CMSIS/Include/cmsis_gcc.h ****   \brief   Enable IRQ Interrupts
 126:Library/CMSIS/Include/cmsis_gcc.h ****   \details Enables IRQ interrupts by clearing the I-bit in the CPSR.
 127:Library/CMSIS/Include/cmsis_gcc.h ****            Can only be executed in Privileged modes.
 128:Library/CMSIS/Include/cmsis_gcc.h ****  */
 129:Library/CMSIS/Include/cmsis_gcc.h **** __STATIC_FORCEINLINE void __enable_irq(void)
 130:Library/CMSIS/Include/cmsis_gcc.h **** {
 131:Library/CMSIS/Include/cmsis_gcc.h ****   __ASM volatile ("cpsie i" : : : "memory");
 132:Library/CMSIS/Include/cmsis_gcc.h **** }
 133:Library/CMSIS/Include/cmsis_gcc.h **** 
 134:Library/CMSIS/Include/cmsis_gcc.h **** 
 135:Library/CMSIS/Include/cmsis_gcc.h **** /**
 136:Library/CMSIS/Include/cmsis_gcc.h ****   \brief   Disable IRQ Interrupts
 137:Library/CMSIS/Include/cmsis_gcc.h ****   \details Disables IRQ interrupts by setting the I-bit in the CPSR.
 138:Library/CMSIS/Include/cmsis_gcc.h ****            Can only be executed in Privileged modes.
 139:Library/CMSIS/Include/cmsis_gcc.h ****  */
 140:Library/CMSIS/Include/cmsis_gcc.h **** __STATIC_FORCEINLINE void __disable_irq(void)
 141:Library/CMSIS/Include/cmsis_gcc.h **** {
 142:Library/CMSIS/Include/cmsis_gcc.h ****   __ASM volatile ("cpsid i" : : : "memory");
 143:Library/CMSIS/Include/cmsis_gcc.h **** }
 144:Library/CMSIS/Include/cmsis_gcc.h **** 
 145:Library/CMSIS/Include/cmsis_gcc.h **** 
 146:Library/CMSIS/Include/cmsis_gcc.h **** /**
 147:Library/CMSIS/Include/cmsis_gcc.h ****   \brief   Get Control Register
 148:Library/CMSIS/Include/cmsis_gcc.h ****   \details Returns the content of the Control Register.
 149:Library/CMSIS/Include/cmsis_gcc.h ****   \return               Control Register value
 150:Library/CMSIS/Include/cmsis_gcc.h ****  */
 151:Library/CMSIS/Include/cmsis_gcc.h **** __STATIC_FORCEINLINE uint32_t __get_CONTROL(void)
 152:Library/CMSIS/Include/cmsis_gcc.h **** {
 153:Library/CMSIS/Include/cmsis_gcc.h ****   uint32_t result;
 154:Library/CMSIS/Include/cmsis_gcc.h **** 
 155:Library/CMSIS/Include/cmsis_gcc.h ****   __ASM volatile ("MRS %0, control" : "=r" (result) );
 156:Library/CMSIS/Include/cmsis_gcc.h ****   return(result);
 157:Library/CMSIS/Include/cmsis_gcc.h **** }
 158:Library/CMSIS/Include/cmsis_gcc.h **** 
 159:Library/CMSIS/Include/cmsis_gcc.h **** 
 160:Library/CMSIS/Include/cmsis_gcc.h **** #if (defined (__ARM_FEATURE_CMSE ) && (__ARM_FEATURE_CMSE == 3))
ARM GAS  C:\Users\geehy\AppData\Local\Temp\ccqa7o7c.s 			page 35


 161:Library/CMSIS/Include/cmsis_gcc.h **** /**
 162:Library/CMSIS/Include/cmsis_gcc.h ****   \brief   Get Control Register (non-secure)
 163:Library/CMSIS/Include/cmsis_gcc.h ****   \details Returns the content of the non-secure Control Register when in secure mode.
 164:Library/CMSIS/Include/cmsis_gcc.h ****   \return               non-secure Control Register value
 165:Library/CMSIS/Include/cmsis_gcc.h ****  */
 166:Library/CMSIS/Include/cmsis_gcc.h **** __STATIC_FORCEINLINE uint32_t __TZ_get_CONTROL_NS(void)
 167:Library/CMSIS/Include/cmsis_gcc.h **** {
 168:Library/CMSIS/Include/cmsis_gcc.h ****   uint32_t result;
 169:Library/CMSIS/Include/cmsis_gcc.h **** 
 170:Library/CMSIS/Include/cmsis_gcc.h ****   __ASM volatile ("MRS %0, control_ns" : "=r" (result) );
 171:Library/CMSIS/Include/cmsis_gcc.h ****   return(result);
 172:Library/CMSIS/Include/cmsis_gcc.h **** }
 173:Library/CMSIS/Include/cmsis_gcc.h **** #endif
 174:Library/CMSIS/Include/cmsis_gcc.h **** 
 175:Library/CMSIS/Include/cmsis_gcc.h **** 
 176:Library/CMSIS/Include/cmsis_gcc.h **** /**
 177:Library/CMSIS/Include/cmsis_gcc.h ****   \brief   Set Control Register
 178:Library/CMSIS/Include/cmsis_gcc.h ****   \details Writes the given value to the Control Register.
 179:Library/CMSIS/Include/cmsis_gcc.h ****   \param [in]    control  Control Register value to set
 180:Library/CMSIS/Include/cmsis_gcc.h ****  */
 181:Library/CMSIS/Include/cmsis_gcc.h **** __STATIC_FORCEINLINE void __set_CONTROL(uint32_t control)
 182:Library/CMSIS/Include/cmsis_gcc.h **** {
 183:Library/CMSIS/Include/cmsis_gcc.h ****   __ASM volatile ("MSR control, %0" : : "r" (control) : "memory");
 184:Library/CMSIS/Include/cmsis_gcc.h **** }
 185:Library/CMSIS/Include/cmsis_gcc.h **** 
 186:Library/CMSIS/Include/cmsis_gcc.h **** 
 187:Library/CMSIS/Include/cmsis_gcc.h **** #if (defined (__ARM_FEATURE_CMSE ) && (__ARM_FEATURE_CMSE == 3))
 188:Library/CMSIS/Include/cmsis_gcc.h **** /**
 189:Library/CMSIS/Include/cmsis_gcc.h ****   \brief   Set Control Register (non-secure)
 190:Library/CMSIS/Include/cmsis_gcc.h ****   \details Writes the given value to the non-secure Control Register when in secure state.
 191:Library/CMSIS/Include/cmsis_gcc.h ****   \param [in]    control  Control Register value to set
 192:Library/CMSIS/Include/cmsis_gcc.h ****  */
 193:Library/CMSIS/Include/cmsis_gcc.h **** __STATIC_FORCEINLINE void __TZ_set_CONTROL_NS(uint32_t control)
 194:Library/CMSIS/Include/cmsis_gcc.h **** {
 195:Library/CMSIS/Include/cmsis_gcc.h ****   __ASM volatile ("MSR control_ns, %0" : : "r" (control) : "memory");
 196:Library/CMSIS/Include/cmsis_gcc.h **** }
 197:Library/CMSIS/Include/cmsis_gcc.h **** #endif
 198:Library/CMSIS/Include/cmsis_gcc.h **** 
 199:Library/CMSIS/Include/cmsis_gcc.h **** 
 200:Library/CMSIS/Include/cmsis_gcc.h **** /**
 201:Library/CMSIS/Include/cmsis_gcc.h ****   \brief   Get IPSR Register
 202:Library/CMSIS/Include/cmsis_gcc.h ****   \details Returns the content of the IPSR Register.
 203:Library/CMSIS/Include/cmsis_gcc.h ****   \return               IPSR Register value
 204:Library/CMSIS/Include/cmsis_gcc.h ****  */
 205:Library/CMSIS/Include/cmsis_gcc.h **** __STATIC_FORCEINLINE uint32_t __get_IPSR(void)
 206:Library/CMSIS/Include/cmsis_gcc.h **** {
 207:Library/CMSIS/Include/cmsis_gcc.h ****   uint32_t result;
 208:Library/CMSIS/Include/cmsis_gcc.h **** 
 209:Library/CMSIS/Include/cmsis_gcc.h ****   __ASM volatile ("MRS %0, ipsr" : "=r" (result) );
 210:Library/CMSIS/Include/cmsis_gcc.h ****   return(result);
 211:Library/CMSIS/Include/cmsis_gcc.h **** }
 212:Library/CMSIS/Include/cmsis_gcc.h **** 
 213:Library/CMSIS/Include/cmsis_gcc.h **** 
 214:Library/CMSIS/Include/cmsis_gcc.h **** /**
 215:Library/CMSIS/Include/cmsis_gcc.h ****   \brief   Get APSR Register
 216:Library/CMSIS/Include/cmsis_gcc.h ****   \details Returns the content of the APSR Register.
 217:Library/CMSIS/Include/cmsis_gcc.h ****   \return               APSR Register value
ARM GAS  C:\Users\geehy\AppData\Local\Temp\ccqa7o7c.s 			page 36


 218:Library/CMSIS/Include/cmsis_gcc.h ****  */
 219:Library/CMSIS/Include/cmsis_gcc.h **** __STATIC_FORCEINLINE uint32_t __get_APSR(void)
 220:Library/CMSIS/Include/cmsis_gcc.h **** {
 221:Library/CMSIS/Include/cmsis_gcc.h ****   uint32_t result;
 222:Library/CMSIS/Include/cmsis_gcc.h **** 
 223:Library/CMSIS/Include/cmsis_gcc.h ****   __ASM volatile ("MRS %0, apsr" : "=r" (result) );
 224:Library/CMSIS/Include/cmsis_gcc.h ****   return(result);
 225:Library/CMSIS/Include/cmsis_gcc.h **** }
 226:Library/CMSIS/Include/cmsis_gcc.h **** 
 227:Library/CMSIS/Include/cmsis_gcc.h **** 
 228:Library/CMSIS/Include/cmsis_gcc.h **** /**
 229:Library/CMSIS/Include/cmsis_gcc.h ****   \brief   Get xPSR Register
 230:Library/CMSIS/Include/cmsis_gcc.h ****   \details Returns the content of the xPSR Register.
 231:Library/CMSIS/Include/cmsis_gcc.h ****   \return               xPSR Register value
 232:Library/CMSIS/Include/cmsis_gcc.h ****  */
 233:Library/CMSIS/Include/cmsis_gcc.h **** __STATIC_FORCEINLINE uint32_t __get_xPSR(void)
 234:Library/CMSIS/Include/cmsis_gcc.h **** {
 235:Library/CMSIS/Include/cmsis_gcc.h ****   uint32_t result;
 236:Library/CMSIS/Include/cmsis_gcc.h **** 
 237:Library/CMSIS/Include/cmsis_gcc.h ****   __ASM volatile ("MRS %0, xpsr" : "=r" (result) );
 238:Library/CMSIS/Include/cmsis_gcc.h ****   return(result);
 239:Library/CMSIS/Include/cmsis_gcc.h **** }
 240:Library/CMSIS/Include/cmsis_gcc.h **** 
 241:Library/CMSIS/Include/cmsis_gcc.h **** 
 242:Library/CMSIS/Include/cmsis_gcc.h **** /**
 243:Library/CMSIS/Include/cmsis_gcc.h ****   \brief   Get Process Stack Pointer
 244:Library/CMSIS/Include/cmsis_gcc.h ****   \details Returns the current value of the Process Stack Pointer (PSP).
 245:Library/CMSIS/Include/cmsis_gcc.h ****   \return               PSP Register value
 246:Library/CMSIS/Include/cmsis_gcc.h ****  */
 247:Library/CMSIS/Include/cmsis_gcc.h **** __STATIC_FORCEINLINE uint32_t __get_PSP(void)
 248:Library/CMSIS/Include/cmsis_gcc.h **** {
 249:Library/CMSIS/Include/cmsis_gcc.h ****   uint32_t result;
 250:Library/CMSIS/Include/cmsis_gcc.h **** 
 251:Library/CMSIS/Include/cmsis_gcc.h ****   __ASM volatile ("MRS %0, psp"  : "=r" (result) );
 252:Library/CMSIS/Include/cmsis_gcc.h ****   return(result);
 253:Library/CMSIS/Include/cmsis_gcc.h **** }
 254:Library/CMSIS/Include/cmsis_gcc.h **** 
 255:Library/CMSIS/Include/cmsis_gcc.h **** 
 256:Library/CMSIS/Include/cmsis_gcc.h **** #if (defined (__ARM_FEATURE_CMSE ) && (__ARM_FEATURE_CMSE == 3))
 257:Library/CMSIS/Include/cmsis_gcc.h **** /**
 258:Library/CMSIS/Include/cmsis_gcc.h ****   \brief   Get Process Stack Pointer (non-secure)
 259:Library/CMSIS/Include/cmsis_gcc.h ****   \details Returns the current value of the non-secure Process Stack Pointer (PSP) when in secure s
 260:Library/CMSIS/Include/cmsis_gcc.h ****   \return               PSP Register value
 261:Library/CMSIS/Include/cmsis_gcc.h ****  */
 262:Library/CMSIS/Include/cmsis_gcc.h **** __STATIC_FORCEINLINE uint32_t __TZ_get_PSP_NS(void)
 263:Library/CMSIS/Include/cmsis_gcc.h **** {
 264:Library/CMSIS/Include/cmsis_gcc.h ****   uint32_t result;
 265:Library/CMSIS/Include/cmsis_gcc.h **** 
 266:Library/CMSIS/Include/cmsis_gcc.h ****   __ASM volatile ("MRS %0, psp_ns"  : "=r" (result) );
 267:Library/CMSIS/Include/cmsis_gcc.h ****   return(result);
 268:Library/CMSIS/Include/cmsis_gcc.h **** }
 269:Library/CMSIS/Include/cmsis_gcc.h **** #endif
 270:Library/CMSIS/Include/cmsis_gcc.h **** 
 271:Library/CMSIS/Include/cmsis_gcc.h **** 
 272:Library/CMSIS/Include/cmsis_gcc.h **** /**
 273:Library/CMSIS/Include/cmsis_gcc.h ****   \brief   Set Process Stack Pointer
 274:Library/CMSIS/Include/cmsis_gcc.h ****   \details Assigns the given value to the Process Stack Pointer (PSP).
ARM GAS  C:\Users\geehy\AppData\Local\Temp\ccqa7o7c.s 			page 37


 275:Library/CMSIS/Include/cmsis_gcc.h ****   \param [in]    topOfProcStack  Process Stack Pointer value to set
 276:Library/CMSIS/Include/cmsis_gcc.h ****  */
 277:Library/CMSIS/Include/cmsis_gcc.h **** __STATIC_FORCEINLINE void __set_PSP(uint32_t topOfProcStack)
 278:Library/CMSIS/Include/cmsis_gcc.h **** {
 279:Library/CMSIS/Include/cmsis_gcc.h ****   __ASM volatile ("MSR psp, %0" : : "r" (topOfProcStack) : );
 280:Library/CMSIS/Include/cmsis_gcc.h **** }
 281:Library/CMSIS/Include/cmsis_gcc.h **** 
 282:Library/CMSIS/Include/cmsis_gcc.h **** 
 283:Library/CMSIS/Include/cmsis_gcc.h **** #if (defined (__ARM_FEATURE_CMSE ) && (__ARM_FEATURE_CMSE == 3))
 284:Library/CMSIS/Include/cmsis_gcc.h **** /**
 285:Library/CMSIS/Include/cmsis_gcc.h ****   \brief   Set Process Stack Pointer (non-secure)
 286:Library/CMSIS/Include/cmsis_gcc.h ****   \details Assigns the given value to the non-secure Process Stack Pointer (PSP) when in secure sta
 287:Library/CMSIS/Include/cmsis_gcc.h ****   \param [in]    topOfProcStack  Process Stack Pointer value to set
 288:Library/CMSIS/Include/cmsis_gcc.h ****  */
 289:Library/CMSIS/Include/cmsis_gcc.h **** __STATIC_FORCEINLINE void __TZ_set_PSP_NS(uint32_t topOfProcStack)
 290:Library/CMSIS/Include/cmsis_gcc.h **** {
 291:Library/CMSIS/Include/cmsis_gcc.h ****   __ASM volatile ("MSR psp_ns, %0" : : "r" (topOfProcStack) : );
 292:Library/CMSIS/Include/cmsis_gcc.h **** }
 293:Library/CMSIS/Include/cmsis_gcc.h **** #endif
 294:Library/CMSIS/Include/cmsis_gcc.h **** 
 295:Library/CMSIS/Include/cmsis_gcc.h **** 
 296:Library/CMSIS/Include/cmsis_gcc.h **** /**
 297:Library/CMSIS/Include/cmsis_gcc.h ****   \brief   Get Main Stack Pointer
 298:Library/CMSIS/Include/cmsis_gcc.h ****   \details Returns the current value of the Main Stack Pointer (MSP).
 299:Library/CMSIS/Include/cmsis_gcc.h ****   \return               MSP Register value
 300:Library/CMSIS/Include/cmsis_gcc.h ****  */
 301:Library/CMSIS/Include/cmsis_gcc.h **** __STATIC_FORCEINLINE uint32_t __get_MSP(void)
 302:Library/CMSIS/Include/cmsis_gcc.h **** {
 303:Library/CMSIS/Include/cmsis_gcc.h ****   uint32_t result;
 304:Library/CMSIS/Include/cmsis_gcc.h **** 
 305:Library/CMSIS/Include/cmsis_gcc.h ****   __ASM volatile ("MRS %0, msp" : "=r" (result) );
 306:Library/CMSIS/Include/cmsis_gcc.h ****   return(result);
 307:Library/CMSIS/Include/cmsis_gcc.h **** }
 308:Library/CMSIS/Include/cmsis_gcc.h **** 
 309:Library/CMSIS/Include/cmsis_gcc.h **** 
 310:Library/CMSIS/Include/cmsis_gcc.h **** #if (defined (__ARM_FEATURE_CMSE ) && (__ARM_FEATURE_CMSE == 3))
 311:Library/CMSIS/Include/cmsis_gcc.h **** /**
 312:Library/CMSIS/Include/cmsis_gcc.h ****   \brief   Get Main Stack Pointer (non-secure)
 313:Library/CMSIS/Include/cmsis_gcc.h ****   \details Returns the current value of the non-secure Main Stack Pointer (MSP) when in secure stat
 314:Library/CMSIS/Include/cmsis_gcc.h ****   \return               MSP Register value
 315:Library/CMSIS/Include/cmsis_gcc.h ****  */
 316:Library/CMSIS/Include/cmsis_gcc.h **** __STATIC_FORCEINLINE uint32_t __TZ_get_MSP_NS(void)
 317:Library/CMSIS/Include/cmsis_gcc.h **** {
 318:Library/CMSIS/Include/cmsis_gcc.h ****   uint32_t result;
 319:Library/CMSIS/Include/cmsis_gcc.h **** 
 320:Library/CMSIS/Include/cmsis_gcc.h ****   __ASM volatile ("MRS %0, msp_ns" : "=r" (result) );
 321:Library/CMSIS/Include/cmsis_gcc.h ****   return(result);
 322:Library/CMSIS/Include/cmsis_gcc.h **** }
 323:Library/CMSIS/Include/cmsis_gcc.h **** #endif
 324:Library/CMSIS/Include/cmsis_gcc.h **** 
 325:Library/CMSIS/Include/cmsis_gcc.h **** 
 326:Library/CMSIS/Include/cmsis_gcc.h **** /**
 327:Library/CMSIS/Include/cmsis_gcc.h ****   \brief   Set Main Stack Pointer
 328:Library/CMSIS/Include/cmsis_gcc.h ****   \details Assigns the given value to the Main Stack Pointer (MSP).
 329:Library/CMSIS/Include/cmsis_gcc.h ****   \param [in]    topOfMainStack  Main Stack Pointer value to set
 330:Library/CMSIS/Include/cmsis_gcc.h ****  */
 331:Library/CMSIS/Include/cmsis_gcc.h **** __STATIC_FORCEINLINE void __set_MSP(uint32_t topOfMainStack)
ARM GAS  C:\Users\geehy\AppData\Local\Temp\ccqa7o7c.s 			page 38


 332:Library/CMSIS/Include/cmsis_gcc.h **** {
 333:Library/CMSIS/Include/cmsis_gcc.h ****   __ASM volatile ("MSR msp, %0" : : "r" (topOfMainStack) : );
 334:Library/CMSIS/Include/cmsis_gcc.h **** }
 335:Library/CMSIS/Include/cmsis_gcc.h **** 
 336:Library/CMSIS/Include/cmsis_gcc.h **** 
 337:Library/CMSIS/Include/cmsis_gcc.h **** #if (defined (__ARM_FEATURE_CMSE ) && (__ARM_FEATURE_CMSE == 3))
 338:Library/CMSIS/Include/cmsis_gcc.h **** /**
 339:Library/CMSIS/Include/cmsis_gcc.h ****   \brief   Set Main Stack Pointer (non-secure)
 340:Library/CMSIS/Include/cmsis_gcc.h ****   \details Assigns the given value to the non-secure Main Stack Pointer (MSP) when in secure state.
 341:Library/CMSIS/Include/cmsis_gcc.h ****   \param [in]    topOfMainStack  Main Stack Pointer value to set
 342:Library/CMSIS/Include/cmsis_gcc.h ****  */
 343:Library/CMSIS/Include/cmsis_gcc.h **** __STATIC_FORCEINLINE void __TZ_set_MSP_NS(uint32_t topOfMainStack)
 344:Library/CMSIS/Include/cmsis_gcc.h **** {
 345:Library/CMSIS/Include/cmsis_gcc.h ****   __ASM volatile ("MSR msp_ns, %0" : : "r" (topOfMainStack) : );
 346:Library/CMSIS/Include/cmsis_gcc.h **** }
 347:Library/CMSIS/Include/cmsis_gcc.h **** #endif
 348:Library/CMSIS/Include/cmsis_gcc.h **** 
 349:Library/CMSIS/Include/cmsis_gcc.h **** 
 350:Library/CMSIS/Include/cmsis_gcc.h **** #if (defined (__ARM_FEATURE_CMSE ) && (__ARM_FEATURE_CMSE == 3))
 351:Library/CMSIS/Include/cmsis_gcc.h **** /**
 352:Library/CMSIS/Include/cmsis_gcc.h ****   \brief   Get Stack Pointer (non-secure)
 353:Library/CMSIS/Include/cmsis_gcc.h ****   \details Returns the current value of the non-secure Stack Pointer (SP) when in secure state.
 354:Library/CMSIS/Include/cmsis_gcc.h ****   \return               SP Register value
 355:Library/CMSIS/Include/cmsis_gcc.h ****  */
 356:Library/CMSIS/Include/cmsis_gcc.h **** __STATIC_FORCEINLINE uint32_t __TZ_get_SP_NS(void)
 357:Library/CMSIS/Include/cmsis_gcc.h **** {
 358:Library/CMSIS/Include/cmsis_gcc.h ****   uint32_t result;
 359:Library/CMSIS/Include/cmsis_gcc.h **** 
 360:Library/CMSIS/Include/cmsis_gcc.h ****   __ASM volatile ("MRS %0, sp_ns" : "=r" (result) );
 361:Library/CMSIS/Include/cmsis_gcc.h ****   return(result);
 362:Library/CMSIS/Include/cmsis_gcc.h **** }
 363:Library/CMSIS/Include/cmsis_gcc.h **** 
 364:Library/CMSIS/Include/cmsis_gcc.h **** 
 365:Library/CMSIS/Include/cmsis_gcc.h **** /**
 366:Library/CMSIS/Include/cmsis_gcc.h ****   \brief   Set Stack Pointer (non-secure)
 367:Library/CMSIS/Include/cmsis_gcc.h ****   \details Assigns the given value to the non-secure Stack Pointer (SP) when in secure state.
 368:Library/CMSIS/Include/cmsis_gcc.h ****   \param [in]    topOfStack  Stack Pointer value to set
 369:Library/CMSIS/Include/cmsis_gcc.h ****  */
 370:Library/CMSIS/Include/cmsis_gcc.h **** __STATIC_FORCEINLINE void __TZ_set_SP_NS(uint32_t topOfStack)
 371:Library/CMSIS/Include/cmsis_gcc.h **** {
 372:Library/CMSIS/Include/cmsis_gcc.h ****   __ASM volatile ("MSR sp_ns, %0" : : "r" (topOfStack) : );
 373:Library/CMSIS/Include/cmsis_gcc.h **** }
 374:Library/CMSIS/Include/cmsis_gcc.h **** #endif
 375:Library/CMSIS/Include/cmsis_gcc.h **** 
 376:Library/CMSIS/Include/cmsis_gcc.h **** 
 377:Library/CMSIS/Include/cmsis_gcc.h **** /**
 378:Library/CMSIS/Include/cmsis_gcc.h ****   \brief   Get Priority Mask
 379:Library/CMSIS/Include/cmsis_gcc.h ****   \details Returns the current state of the priority mask bit from the Priority Mask Register.
 380:Library/CMSIS/Include/cmsis_gcc.h ****   \return               Priority Mask value
 381:Library/CMSIS/Include/cmsis_gcc.h ****  */
 382:Library/CMSIS/Include/cmsis_gcc.h **** __STATIC_FORCEINLINE uint32_t __get_PRIMASK(void)
 383:Library/CMSIS/Include/cmsis_gcc.h **** {
 384:Library/CMSIS/Include/cmsis_gcc.h ****   uint32_t result;
 385:Library/CMSIS/Include/cmsis_gcc.h **** 
 386:Library/CMSIS/Include/cmsis_gcc.h ****   __ASM volatile ("MRS %0, primask" : "=r" (result) :: "memory");
 387:Library/CMSIS/Include/cmsis_gcc.h ****   return(result);
 388:Library/CMSIS/Include/cmsis_gcc.h **** }
ARM GAS  C:\Users\geehy\AppData\Local\Temp\ccqa7o7c.s 			page 39


 389:Library/CMSIS/Include/cmsis_gcc.h **** 
 390:Library/CMSIS/Include/cmsis_gcc.h **** 
 391:Library/CMSIS/Include/cmsis_gcc.h **** #if (defined (__ARM_FEATURE_CMSE ) && (__ARM_FEATURE_CMSE == 3))
 392:Library/CMSIS/Include/cmsis_gcc.h **** /**
 393:Library/CMSIS/Include/cmsis_gcc.h ****   \brief   Get Priority Mask (non-secure)
 394:Library/CMSIS/Include/cmsis_gcc.h ****   \details Returns the current state of the non-secure priority mask bit from the Priority Mask Reg
 395:Library/CMSIS/Include/cmsis_gcc.h ****   \return               Priority Mask value
 396:Library/CMSIS/Include/cmsis_gcc.h ****  */
 397:Library/CMSIS/Include/cmsis_gcc.h **** __STATIC_FORCEINLINE uint32_t __TZ_get_PRIMASK_NS(void)
 398:Library/CMSIS/Include/cmsis_gcc.h **** {
 399:Library/CMSIS/Include/cmsis_gcc.h ****   uint32_t result;
 400:Library/CMSIS/Include/cmsis_gcc.h **** 
 401:Library/CMSIS/Include/cmsis_gcc.h ****   __ASM volatile ("MRS %0, primask_ns" : "=r" (result) :: "memory");
 402:Library/CMSIS/Include/cmsis_gcc.h ****   return(result);
 403:Library/CMSIS/Include/cmsis_gcc.h **** }
 404:Library/CMSIS/Include/cmsis_gcc.h **** #endif
 405:Library/CMSIS/Include/cmsis_gcc.h **** 
 406:Library/CMSIS/Include/cmsis_gcc.h **** 
 407:Library/CMSIS/Include/cmsis_gcc.h **** /**
 408:Library/CMSIS/Include/cmsis_gcc.h ****   \brief   Set Priority Mask
 409:Library/CMSIS/Include/cmsis_gcc.h ****   \details Assigns the given value to the Priority Mask Register.
 410:Library/CMSIS/Include/cmsis_gcc.h ****   \param [in]    priMask  Priority Mask
 411:Library/CMSIS/Include/cmsis_gcc.h ****  */
 412:Library/CMSIS/Include/cmsis_gcc.h **** __STATIC_FORCEINLINE void __set_PRIMASK(uint32_t priMask)
 957              		.loc 2 412 27 view .LVU208
 958              	.LBB11:
 413:Library/CMSIS/Include/cmsis_gcc.h **** {
 414:Library/CMSIS/Include/cmsis_gcc.h ****   __ASM volatile ("MSR primask, %0" : : "r" (priMask) : "memory");
 959              		.loc 2 414 3 view .LVU209
 960 000c 0123     		movs	r3, #1
 961              		.syntax unified
 962              	@ 414 "Library/CMSIS/Include/cmsis_gcc.h" 1
 963 000e 83F31088 		MSR primask, r3
 964              	@ 0 "" 2
 965              	.LVL47:
 966              		.loc 2 414 3 is_stmt 0 view .LVU210
 967              		.thumb
 968              		.syntax unified
 969              	.LBE11:
 970              	.LBE10:
 254:Library/APM32F10x_StdPeriphDriver/src/apm32f10x_fmc.c **** 
 971              		.loc 1 254 5 is_stmt 1 view .LVU211
 254:Library/APM32F10x_StdPeriphDriver/src/apm32f10x_fmc.c **** 
 972              		.loc 1 254 14 is_stmt 0 view .LVU212
 973 0012 4FF43020 		mov	r0, #720896
 974              	.LVL48:
 254:Library/APM32F10x_StdPeriphDriver/src/apm32f10x_fmc.c **** 
 975              		.loc 1 254 14 view .LVU213
 976 0016 FFF7FEFF 		bl	FMC_WaitForLastOperation
 977              	.LVL49:
 256:Library/APM32F10x_StdPeriphDriver/src/apm32f10x_fmc.c ****     {
 978              		.loc 1 256 5 is_stmt 1 view .LVU214
 256:Library/APM32F10x_StdPeriphDriver/src/apm32f10x_fmc.c ****     {
 979              		.loc 1 256 7 is_stmt 0 view .LVU215
 980 001a 0428     		cmp	r0, #4
 981 001c 04D0     		beq	.L98
 982              	.LVL50:
ARM GAS  C:\Users\geehy\AppData\Local\Temp\ccqa7o7c.s 			page 40


 983              	.L95:
 280:Library/APM32F10x_StdPeriphDriver/src/apm32f10x_fmc.c ****     #endif
 984              		.loc 1 280 9 is_stmt 1 view .LVU216
 985              	.LBB12:
 986              	.LBI12:
 412:Library/CMSIS/Include/cmsis_gcc.h **** {
 987              		.loc 2 412 27 view .LVU217
 988              	.LBB13:
 989              		.loc 2 414 3 view .LVU218
 990 001e 0023     		movs	r3, #0
 991              		.syntax unified
 992              	@ 414 "Library/CMSIS/Include/cmsis_gcc.h" 1
 993 0020 83F31088 		MSR primask, r3
 994              	@ 0 "" 2
 995              	.LVL51:
 996              		.loc 2 414 3 is_stmt 0 view .LVU219
 997              		.thumb
 998              		.syntax unified
 999              	.LBE13:
 1000              	.LBE12:
 283:Library/APM32F10x_StdPeriphDriver/src/apm32f10x_fmc.c **** }
 1001              		.loc 1 283 5 is_stmt 1 view .LVU220
 284:Library/APM32F10x_StdPeriphDriver/src/apm32f10x_fmc.c **** 
 1002              		.loc 1 284 1 is_stmt 0 view .LVU221
 1003 0024 03B0     		add	sp, sp, #12
 1004              	.LCFI6:
 1005              		.cfi_remember_state
 1006              		.cfi_def_cfa_offset 12
 1007              		@ sp needed
 1008 0026 30BD     		pop	{r4, r5, pc}
 1009              	.LVL52:
 1010              	.L98:
 1011              	.LCFI7:
 1012              		.cfi_restore_state
 258:Library/APM32F10x_StdPeriphDriver/src/apm32f10x_fmc.c **** 
 1013              		.loc 1 258 9 is_stmt 1 view .LVU222
 258:Library/APM32F10x_StdPeriphDriver/src/apm32f10x_fmc.c **** 
 1014              		.loc 1 258 25 is_stmt 0 view .LVU223
 1015 0028 104A     		ldr	r2, .L100
 1016 002a 1369     		ldr	r3, [r2, #16]
 1017 002c 43F00103 		orr	r3, r3, #1
 1018 0030 1361     		str	r3, [r2, #16]
 260:Library/APM32F10x_StdPeriphDriver/src/apm32f10x_fmc.c **** 
 1019              		.loc 1 260 9 is_stmt 1 view .LVU224
 260:Library/APM32F10x_StdPeriphDriver/src/apm32f10x_fmc.c **** 
 1020              		.loc 1 260 36 is_stmt 0 view .LVU225
 1021 0032 A3B2     		uxth	r3, r4
 1022 0034 2B80     		strh	r3, [r5]	@ movhi
 262:Library/APM32F10x_StdPeriphDriver/src/apm32f10x_fmc.c **** 
 1023              		.loc 1 262 9 is_stmt 1 view .LVU226
 262:Library/APM32F10x_StdPeriphDriver/src/apm32f10x_fmc.c **** 
 1024              		.loc 1 262 18 is_stmt 0 view .LVU227
 1025 0036 4FF43020 		mov	r0, #720896
 1026              	.LVL53:
 262:Library/APM32F10x_StdPeriphDriver/src/apm32f10x_fmc.c **** 
 1027              		.loc 1 262 18 view .LVU228
 1028 003a FFF7FEFF 		bl	FMC_WaitForLastOperation
ARM GAS  C:\Users\geehy\AppData\Local\Temp\ccqa7o7c.s 			page 41


 1029              	.LVL54:
 264:Library/APM32F10x_StdPeriphDriver/src/apm32f10x_fmc.c ****         {
 1030              		.loc 1 264 9 is_stmt 1 view .LVU229
 264:Library/APM32F10x_StdPeriphDriver/src/apm32f10x_fmc.c ****         {
 1031              		.loc 1 264 11 is_stmt 0 view .LVU230
 1032 003e 0428     		cmp	r0, #4
 1033 0040 05D0     		beq	.L99
 275:Library/APM32F10x_StdPeriphDriver/src/apm32f10x_fmc.c ****         }
 1034              		.loc 1 275 13 is_stmt 1 view .LVU231
 275:Library/APM32F10x_StdPeriphDriver/src/apm32f10x_fmc.c ****         }
 1035              		.loc 1 275 29 is_stmt 0 view .LVU232
 1036 0042 0A4B     		ldr	r3, .L100
 1037 0044 1A69     		ldr	r2, [r3, #16]
 1038 0046 6FF30002 		bfc	r2, #0, #1
 1039 004a 1A61     		str	r2, [r3, #16]
 1040 004c E7E7     		b	.L95
 1041              	.L99:
 266:Library/APM32F10x_StdPeriphDriver/src/apm32f10x_fmc.c **** 
 1042              		.loc 1 266 13 is_stmt 1 view .LVU233
 266:Library/APM32F10x_StdPeriphDriver/src/apm32f10x_fmc.c **** 
 1043              		.loc 1 266 28 is_stmt 0 view .LVU234
 1044 004e 0235     		adds	r5, r5, #2
 1045              	.LVL55:
 266:Library/APM32F10x_StdPeriphDriver/src/apm32f10x_fmc.c **** 
 1046              		.loc 1 266 18 view .LVU235
 1047 0050 0195     		str	r5, [sp, #4]
 268:Library/APM32F10x_StdPeriphDriver/src/apm32f10x_fmc.c **** 
 1048              		.loc 1 268 13 is_stmt 1 view .LVU236
 268:Library/APM32F10x_StdPeriphDriver/src/apm32f10x_fmc.c **** 
 1049              		.loc 1 268 14 is_stmt 0 view .LVU237
 1050 0052 019B     		ldr	r3, [sp, #4]
 268:Library/APM32F10x_StdPeriphDriver/src/apm32f10x_fmc.c **** 
 1051              		.loc 1 268 37 view .LVU238
 1052 0054 210C     		lsrs	r1, r4, #16
 1053 0056 1980     		strh	r1, [r3]	@ movhi
 270:Library/APM32F10x_StdPeriphDriver/src/apm32f10x_fmc.c ****             FMC->CTRL2_B.PG = BIT_RESET;
 1054              		.loc 1 270 13 is_stmt 1 view .LVU239
 270:Library/APM32F10x_StdPeriphDriver/src/apm32f10x_fmc.c ****             FMC->CTRL2_B.PG = BIT_RESET;
 1055              		.loc 1 270 22 is_stmt 0 view .LVU240
 1056 0058 4FF43020 		mov	r0, #720896
 1057              	.LVL56:
 270:Library/APM32F10x_StdPeriphDriver/src/apm32f10x_fmc.c ****             FMC->CTRL2_B.PG = BIT_RESET;
 1058              		.loc 1 270 22 view .LVU241
 1059 005c FFF7FEFF 		bl	FMC_WaitForLastOperation
 1060              	.LVL57:
 271:Library/APM32F10x_StdPeriphDriver/src/apm32f10x_fmc.c ****         }
 1061              		.loc 1 271 13 is_stmt 1 view .LVU242
 271:Library/APM32F10x_StdPeriphDriver/src/apm32f10x_fmc.c ****         }
 1062              		.loc 1 271 29 is_stmt 0 view .LVU243
 1063 0060 024B     		ldr	r3, .L100
 1064 0062 1A69     		ldr	r2, [r3, #16]
 1065 0064 6FF30002 		bfc	r2, #0, #1
 1066 0068 1A61     		str	r2, [r3, #16]
 1067 006a D8E7     		b	.L95
 1068              	.L101:
 1069              		.align	2
 1070              	.L100:
ARM GAS  C:\Users\geehy\AppData\Local\Temp\ccqa7o7c.s 			page 42


 1071 006c 00200240 		.word	1073881088
 1072              		.cfi_endproc
 1073              	.LFE75:
 1075              		.section	.text.FMC_ProgramHalfWord,"ax",%progbits
 1076              		.align	1
 1077              		.global	FMC_ProgramHalfWord
 1078              		.syntax unified
 1079              		.thumb
 1080              		.thumb_func
 1082              	FMC_ProgramHalfWord:
 1083              	.LVL58:
 1084              	.LFB76:
 300:Library/APM32F10x_StdPeriphDriver/src/apm32f10x_fmc.c ****     FMC_STATUS_T status = FMC_STATUS_COMPLETE;
 1085              		.loc 1 300 1 is_stmt 1 view -0
 1086              		.cfi_startproc
 1087              		@ args = 0, pretend = 0, frame = 0
 1088              		@ frame_needed = 0, uses_anonymous_args = 0
 300:Library/APM32F10x_StdPeriphDriver/src/apm32f10x_fmc.c ****     FMC_STATUS_T status = FMC_STATUS_COMPLETE;
 1089              		.loc 1 300 1 is_stmt 0 view .LVU245
 1090 0000 70B5     		push	{r4, r5, r6, lr}
 1091              	.LCFI8:
 1092              		.cfi_def_cfa_offset 16
 1093              		.cfi_offset 4, -16
 1094              		.cfi_offset 5, -12
 1095              		.cfi_offset 6, -8
 1096              		.cfi_offset 14, -4
 1097 0002 0446     		mov	r4, r0
 1098 0004 0D46     		mov	r5, r1
 301:Library/APM32F10x_StdPeriphDriver/src/apm32f10x_fmc.c **** 
 1099              		.loc 1 301 5 is_stmt 1 view .LVU246
 1100              	.LVL59:
 304:Library/APM32F10x_StdPeriphDriver/src/apm32f10x_fmc.c ****     #endif
 1101              		.loc 1 304 9 view .LVU247
 1102              	.LBB14:
 1103              	.LBI14:
 412:Library/CMSIS/Include/cmsis_gcc.h **** {
 1104              		.loc 2 412 27 view .LVU248
 1105              	.LBB15:
 1106              		.loc 2 414 3 view .LVU249
 1107 0006 0123     		movs	r3, #1
 1108              		.syntax unified
 1109              	@ 414 "Library/CMSIS/Include/cmsis_gcc.h" 1
 1110 0008 83F31088 		MSR primask, r3
 1111              	@ 0 "" 2
 1112              	.LVL60:
 1113              		.loc 2 414 3 is_stmt 0 view .LVU250
 1114              		.thumb
 1115              		.syntax unified
 1116              	.LBE15:
 1117              	.LBE14:
 307:Library/APM32F10x_StdPeriphDriver/src/apm32f10x_fmc.c **** 
 1118              		.loc 1 307 5 is_stmt 1 view .LVU251
 307:Library/APM32F10x_StdPeriphDriver/src/apm32f10x_fmc.c **** 
 1119              		.loc 1 307 14 is_stmt 0 view .LVU252
 1120 000c 4FF43020 		mov	r0, #720896
 1121              	.LVL61:
 307:Library/APM32F10x_StdPeriphDriver/src/apm32f10x_fmc.c **** 
ARM GAS  C:\Users\geehy\AppData\Local\Temp\ccqa7o7c.s 			page 43


 1122              		.loc 1 307 14 view .LVU253
 1123 0010 FFF7FEFF 		bl	FMC_WaitForLastOperation
 1124              	.LVL62:
 309:Library/APM32F10x_StdPeriphDriver/src/apm32f10x_fmc.c ****     {
 1125              		.loc 1 309 5 is_stmt 1 view .LVU254
 309:Library/APM32F10x_StdPeriphDriver/src/apm32f10x_fmc.c ****     {
 1126              		.loc 1 309 7 is_stmt 0 view .LVU255
 1127 0014 0428     		cmp	r0, #4
 1128 0016 03D0     		beq	.L105
 1129              	.L103:
 318:Library/APM32F10x_StdPeriphDriver/src/apm32f10x_fmc.c ****     #endif
 1130              		.loc 1 318 9 is_stmt 1 view .LVU256
 1131              	.LVL63:
 1132              	.LBB16:
 1133              	.LBI16:
 412:Library/CMSIS/Include/cmsis_gcc.h **** {
 1134              		.loc 2 412 27 view .LVU257
 1135              	.LBB17:
 1136              		.loc 2 414 3 view .LVU258
 1137 0018 0023     		movs	r3, #0
 1138              		.syntax unified
 1139              	@ 414 "Library/CMSIS/Include/cmsis_gcc.h" 1
 1140 001a 83F31088 		MSR primask, r3
 1141              	@ 0 "" 2
 1142              	.LVL64:
 1143              		.loc 2 414 3 is_stmt 0 view .LVU259
 1144              		.thumb
 1145              		.syntax unified
 1146              	.LBE17:
 1147              	.LBE16:
 321:Library/APM32F10x_StdPeriphDriver/src/apm32f10x_fmc.c **** }
 1148              		.loc 1 321 5 is_stmt 1 view .LVU260
 322:Library/APM32F10x_StdPeriphDriver/src/apm32f10x_fmc.c **** 
 1149              		.loc 1 322 1 is_stmt 0 view .LVU261
 1150 001e 70BD     		pop	{r4, r5, r6, pc}
 1151              	.LVL65:
 1152              	.L105:
 311:Library/APM32F10x_StdPeriphDriver/src/apm32f10x_fmc.c ****         *(__IOM uint16_t *)address = data;
 1153              		.loc 1 311 9 is_stmt 1 view .LVU262
 311:Library/APM32F10x_StdPeriphDriver/src/apm32f10x_fmc.c ****         *(__IOM uint16_t *)address = data;
 1154              		.loc 1 311 25 is_stmt 0 view .LVU263
 1155 0020 074E     		ldr	r6, .L106
 1156 0022 3369     		ldr	r3, [r6, #16]
 1157 0024 43F00103 		orr	r3, r3, #1
 1158 0028 3361     		str	r3, [r6, #16]
 312:Library/APM32F10x_StdPeriphDriver/src/apm32f10x_fmc.c ****         status = FMC_WaitForLastOperation(0x000B0000);
 1159              		.loc 1 312 9 is_stmt 1 view .LVU264
 312:Library/APM32F10x_StdPeriphDriver/src/apm32f10x_fmc.c ****         status = FMC_WaitForLastOperation(0x000B0000);
 1160              		.loc 1 312 36 is_stmt 0 view .LVU265
 1161 002a 2580     		strh	r5, [r4]	@ movhi
 313:Library/APM32F10x_StdPeriphDriver/src/apm32f10x_fmc.c ****         FMC->CTRL2_B.PG = BIT_RESET;
 1162              		.loc 1 313 9 is_stmt 1 view .LVU266
 313:Library/APM32F10x_StdPeriphDriver/src/apm32f10x_fmc.c ****         FMC->CTRL2_B.PG = BIT_RESET;
 1163              		.loc 1 313 18 is_stmt 0 view .LVU267
 1164 002c 4FF43020 		mov	r0, #720896
 1165              	.LVL66:
 313:Library/APM32F10x_StdPeriphDriver/src/apm32f10x_fmc.c ****         FMC->CTRL2_B.PG = BIT_RESET;
ARM GAS  C:\Users\geehy\AppData\Local\Temp\ccqa7o7c.s 			page 44


 1166              		.loc 1 313 18 view .LVU268
 1167 0030 FFF7FEFF 		bl	FMC_WaitForLastOperation
 1168              	.LVL67:
 314:Library/APM32F10x_StdPeriphDriver/src/apm32f10x_fmc.c ****     }
 1169              		.loc 1 314 9 is_stmt 1 view .LVU269
 314:Library/APM32F10x_StdPeriphDriver/src/apm32f10x_fmc.c ****     }
 1170              		.loc 1 314 25 is_stmt 0 view .LVU270
 1171 0034 3369     		ldr	r3, [r6, #16]
 1172 0036 6FF30003 		bfc	r3, #0, #1
 1173 003a 3361     		str	r3, [r6, #16]
 1174 003c ECE7     		b	.L103
 1175              	.L107:
 1176 003e 00BF     		.align	2
 1177              	.L106:
 1178 0040 00200240 		.word	1073881088
 1179              		.cfi_endproc
 1180              	.LFE76:
 1182              		.section	.text.FMC_ProgramOptionByteData,"ax",%progbits
 1183              		.align	1
 1184              		.global	FMC_ProgramOptionByteData
 1185              		.syntax unified
 1186              		.thumb
 1187              		.thumb_func
 1189              	FMC_ProgramOptionByteData:
 1190              	.LVL68:
 1191              	.LFB77:
 338:Library/APM32F10x_StdPeriphDriver/src/apm32f10x_fmc.c ****     FMC_STATUS_T status = FMC_STATUS_COMPLETE;
 1192              		.loc 1 338 1 is_stmt 1 view -0
 1193              		.cfi_startproc
 1194              		@ args = 0, pretend = 0, frame = 0
 1195              		@ frame_needed = 0, uses_anonymous_args = 0
 338:Library/APM32F10x_StdPeriphDriver/src/apm32f10x_fmc.c ****     FMC_STATUS_T status = FMC_STATUS_COMPLETE;
 1196              		.loc 1 338 1 is_stmt 0 view .LVU272
 1197 0000 38B5     		push	{r3, r4, r5, lr}
 1198              	.LCFI9:
 1199              		.cfi_def_cfa_offset 16
 1200              		.cfi_offset 3, -16
 1201              		.cfi_offset 4, -12
 1202              		.cfi_offset 5, -8
 1203              		.cfi_offset 14, -4
 1204 0002 0546     		mov	r5, r0
 1205 0004 0C46     		mov	r4, r1
 339:Library/APM32F10x_StdPeriphDriver/src/apm32f10x_fmc.c **** 
 1206              		.loc 1 339 5 is_stmt 1 view .LVU273
 1207              	.LVL69:
 341:Library/APM32F10x_StdPeriphDriver/src/apm32f10x_fmc.c **** 
 1208              		.loc 1 341 5 view .LVU274
 341:Library/APM32F10x_StdPeriphDriver/src/apm32f10x_fmc.c **** 
 1209              		.loc 1 341 14 is_stmt 0 view .LVU275
 1210 0006 4FF43020 		mov	r0, #720896
 1211              	.LVL70:
 341:Library/APM32F10x_StdPeriphDriver/src/apm32f10x_fmc.c **** 
 1212              		.loc 1 341 14 view .LVU276
 1213 000a FFF7FEFF 		bl	FMC_WaitForLastOperation
 1214              	.LVL71:
 343:Library/APM32F10x_StdPeriphDriver/src/apm32f10x_fmc.c ****     {
 1215              		.loc 1 343 5 is_stmt 1 view .LVU277
ARM GAS  C:\Users\geehy\AppData\Local\Temp\ccqa7o7c.s 			page 45


 343:Library/APM32F10x_StdPeriphDriver/src/apm32f10x_fmc.c ****     {
 1216              		.loc 1 343 7 is_stmt 0 view .LVU278
 1217 000e 0428     		cmp	r0, #4
 1218 0010 00D0     		beq	.L111
 1219              	.L109:
 356:Library/APM32F10x_StdPeriphDriver/src/apm32f10x_fmc.c **** }
 1220              		.loc 1 356 5 is_stmt 1 view .LVU279
 357:Library/APM32F10x_StdPeriphDriver/src/apm32f10x_fmc.c **** 
 1221              		.loc 1 357 1 is_stmt 0 view .LVU280
 1222 0012 38BD     		pop	{r3, r4, r5, pc}
 1223              	.LVL72:
 1224              	.L111:
 345:Library/APM32F10x_StdPeriphDriver/src/apm32f10x_fmc.c ****         FMC->OBKEY = 0xCDEF89AB;
 1225              		.loc 1 345 9 is_stmt 1 view .LVU281
 345:Library/APM32F10x_StdPeriphDriver/src/apm32f10x_fmc.c ****         FMC->OBKEY = 0xCDEF89AB;
 1226              		.loc 1 345 20 is_stmt 0 view .LVU282
 1227 0014 0B4B     		ldr	r3, .L112
 1228 0016 0C4A     		ldr	r2, .L112+4
 1229 0018 9A60     		str	r2, [r3, #8]
 346:Library/APM32F10x_StdPeriphDriver/src/apm32f10x_fmc.c **** 
 1230              		.loc 1 346 9 is_stmt 1 view .LVU283
 346:Library/APM32F10x_StdPeriphDriver/src/apm32f10x_fmc.c **** 
 1231              		.loc 1 346 20 is_stmt 0 view .LVU284
 1232 001a 02F18832 		add	r2, r2, #-2004318072
 1233 001e 9A60     		str	r2, [r3, #8]
 348:Library/APM32F10x_StdPeriphDriver/src/apm32f10x_fmc.c ****         *(__IOM uint16_t *)address = data;
 1234              		.loc 1 348 9 is_stmt 1 view .LVU285
 348:Library/APM32F10x_StdPeriphDriver/src/apm32f10x_fmc.c ****         *(__IOM uint16_t *)address = data;
 1235              		.loc 1 348 26 is_stmt 0 view .LVU286
 1236 0020 1A69     		ldr	r2, [r3, #16]
 1237 0022 42F01002 		orr	r2, r2, #16
 1238 0026 1A61     		str	r2, [r3, #16]
 349:Library/APM32F10x_StdPeriphDriver/src/apm32f10x_fmc.c ****         status = FMC_WaitForLastOperation(0x000B0000);
 1239              		.loc 1 349 9 is_stmt 1 view .LVU287
 349:Library/APM32F10x_StdPeriphDriver/src/apm32f10x_fmc.c ****         status = FMC_WaitForLastOperation(0x000B0000);
 1240              		.loc 1 349 36 is_stmt 0 view .LVU288
 1241 0028 A1B2     		uxth	r1, r4
 1242 002a 2980     		strh	r1, [r5]	@ movhi
 350:Library/APM32F10x_StdPeriphDriver/src/apm32f10x_fmc.c ****         if(status == FMC_STATUS_TIMEOUT)
 1243              		.loc 1 350 9 is_stmt 1 view .LVU289
 350:Library/APM32F10x_StdPeriphDriver/src/apm32f10x_fmc.c ****         if(status == FMC_STATUS_TIMEOUT)
 1244              		.loc 1 350 18 is_stmt 0 view .LVU290
 1245 002c 4FF43020 		mov	r0, #720896
 1246              	.LVL73:
 350:Library/APM32F10x_StdPeriphDriver/src/apm32f10x_fmc.c ****         if(status == FMC_STATUS_TIMEOUT)
 1247              		.loc 1 350 18 view .LVU291
 1248 0030 FFF7FEFF 		bl	FMC_WaitForLastOperation
 1249              	.LVL74:
 351:Library/APM32F10x_StdPeriphDriver/src/apm32f10x_fmc.c ****         {
 1250              		.loc 1 351 9 is_stmt 1 view .LVU292
 351:Library/APM32F10x_StdPeriphDriver/src/apm32f10x_fmc.c ****         {
 1251              		.loc 1 351 11 is_stmt 0 view .LVU293
 1252 0034 0528     		cmp	r0, #5
 1253 0036 ECD1     		bne	.L109
 353:Library/APM32F10x_StdPeriphDriver/src/apm32f10x_fmc.c ****         }
 1254              		.loc 1 353 13 is_stmt 1 view .LVU294
 353:Library/APM32F10x_StdPeriphDriver/src/apm32f10x_fmc.c ****         }
ARM GAS  C:\Users\geehy\AppData\Local\Temp\ccqa7o7c.s 			page 46


 1255              		.loc 1 353 30 is_stmt 0 view .LVU295
 1256 0038 024B     		ldr	r3, .L112
 1257 003a 1A69     		ldr	r2, [r3, #16]
 1258 003c 6FF30412 		bfc	r2, #4, #1
 1259 0040 1A61     		str	r2, [r3, #16]
 1260 0042 E6E7     		b	.L109
 1261              	.L113:
 1262              		.align	2
 1263              	.L112:
 1264 0044 00200240 		.word	1073881088
 1265 0048 23016745 		.word	1164378403
 1266              		.cfi_endproc
 1267              	.LFE77:
 1269              		.section	.text.FMC_EnableWriteProtection,"ax",%progbits
 1270              		.align	1
 1271              		.global	FMC_EnableWriteProtection
 1272              		.syntax unified
 1273              		.thumb
 1274              		.thumb_func
 1276              	FMC_EnableWriteProtection:
 1277              	.LVL75:
 1278              	.LFB78:
 379:Library/APM32F10x_StdPeriphDriver/src/apm32f10x_fmc.c ****     uint16_t WPP0_Data = 0xFFFF, WPP1_Data = 0xFFFF, WPP2_Data = 0xFFFF, WPP3_Data = 0xFFFF;
 1279              		.loc 1 379 1 is_stmt 1 view -0
 1280              		.cfi_startproc
 1281              		@ args = 0, pretend = 0, frame = 0
 1282              		@ frame_needed = 0, uses_anonymous_args = 0
 379:Library/APM32F10x_StdPeriphDriver/src/apm32f10x_fmc.c ****     uint16_t WPP0_Data = 0xFFFF, WPP1_Data = 0xFFFF, WPP2_Data = 0xFFFF, WPP3_Data = 0xFFFF;
 1283              		.loc 1 379 1 is_stmt 0 view .LVU297
 1284 0000 F8B5     		push	{r3, r4, r5, r6, r7, lr}
 1285              	.LCFI10:
 1286              		.cfi_def_cfa_offset 24
 1287              		.cfi_offset 3, -24
 1288              		.cfi_offset 4, -20
 1289              		.cfi_offset 5, -16
 1290              		.cfi_offset 6, -12
 1291              		.cfi_offset 7, -8
 1292              		.cfi_offset 14, -4
 380:Library/APM32F10x_StdPeriphDriver/src/apm32f10x_fmc.c ****     FMC_STATUS_T status = FMC_STATUS_COMPLETE;
 1293              		.loc 1 380 5 is_stmt 1 view .LVU298
 1294              	.LVL76:
 381:Library/APM32F10x_StdPeriphDriver/src/apm32f10x_fmc.c **** 
 1295              		.loc 1 381 5 view .LVU299
 383:Library/APM32F10x_StdPeriphDriver/src/apm32f10x_fmc.c ****     WPP0_Data = (page & 0x000000FF);
 1296              		.loc 1 383 5 view .LVU300
 383:Library/APM32F10x_StdPeriphDriver/src/apm32f10x_fmc.c ****     WPP0_Data = (page & 0x000000FF);
 1297              		.loc 1 383 10 is_stmt 0 view .LVU301
 1298 0002 C043     		mvns	r0, r0
 1299              	.LVL77:
 384:Library/APM32F10x_StdPeriphDriver/src/apm32f10x_fmc.c ****     WPP1_Data = (page & 0x0000FF00) >> 8;
 1300              		.loc 1 384 5 is_stmt 1 view .LVU302
 384:Library/APM32F10x_StdPeriphDriver/src/apm32f10x_fmc.c ****     WPP1_Data = (page & 0x0000FF00) >> 8;
 1301              		.loc 1 384 15 is_stmt 0 view .LVU303
 1302 0004 C7B2     		uxtb	r7, r0
 1303              	.LVL78:
 385:Library/APM32F10x_StdPeriphDriver/src/apm32f10x_fmc.c ****     WPP2_Data = (page & 0x00FF0000) >> 16;
 1304              		.loc 1 385 5 is_stmt 1 view .LVU304
ARM GAS  C:\Users\geehy\AppData\Local\Temp\ccqa7o7c.s 			page 47


 385:Library/APM32F10x_StdPeriphDriver/src/apm32f10x_fmc.c ****     WPP2_Data = (page & 0x00FF0000) >> 16;
 1305              		.loc 1 385 15 is_stmt 0 view .LVU305
 1306 0006 C0F30726 		ubfx	r6, r0, #8, #8
 1307              	.LVL79:
 386:Library/APM32F10x_StdPeriphDriver/src/apm32f10x_fmc.c ****     WPP3_Data = (page & 0xFF000000) >> 24;
 1308              		.loc 1 386 5 is_stmt 1 view .LVU306
 386:Library/APM32F10x_StdPeriphDriver/src/apm32f10x_fmc.c ****     WPP3_Data = (page & 0xFF000000) >> 24;
 1309              		.loc 1 386 15 is_stmt 0 view .LVU307
 1310 000a C0F30745 		ubfx	r5, r0, #16, #8
 1311              	.LVL80:
 387:Library/APM32F10x_StdPeriphDriver/src/apm32f10x_fmc.c **** 
 1312              		.loc 1 387 5 is_stmt 1 view .LVU308
 387:Library/APM32F10x_StdPeriphDriver/src/apm32f10x_fmc.c **** 
 1313              		.loc 1 387 15 is_stmt 0 view .LVU309
 1314 000e 040E     		lsrs	r4, r0, #24
 1315              	.LVL81:
 389:Library/APM32F10x_StdPeriphDriver/src/apm32f10x_fmc.c **** 
 1316              		.loc 1 389 5 is_stmt 1 view .LVU310
 389:Library/APM32F10x_StdPeriphDriver/src/apm32f10x_fmc.c **** 
 1317              		.loc 1 389 14 is_stmt 0 view .LVU311
 1318 0010 4FF43020 		mov	r0, #720896
 1319              	.LVL82:
 389:Library/APM32F10x_StdPeriphDriver/src/apm32f10x_fmc.c **** 
 1320              		.loc 1 389 14 view .LVU312
 1321 0014 FFF7FEFF 		bl	FMC_WaitForLastOperation
 1322              	.LVL83:
 391:Library/APM32F10x_StdPeriphDriver/src/apm32f10x_fmc.c ****     {
 1323              		.loc 1 391 5 is_stmt 1 view .LVU313
 391:Library/APM32F10x_StdPeriphDriver/src/apm32f10x_fmc.c ****     {
 1324              		.loc 1 391 7 is_stmt 0 view .LVU314
 1325 0018 0428     		cmp	r0, #4
 1326 001a 00D0     		beq	.L121
 1327              	.L115:
 423:Library/APM32F10x_StdPeriphDriver/src/apm32f10x_fmc.c **** }
 1328              		.loc 1 423 5 is_stmt 1 view .LVU315
 424:Library/APM32F10x_StdPeriphDriver/src/apm32f10x_fmc.c **** 
 1329              		.loc 1 424 1 is_stmt 0 view .LVU316
 1330 001c F8BD     		pop	{r3, r4, r5, r6, r7, pc}
 1331              	.LVL84:
 1332              	.L121:
 393:Library/APM32F10x_StdPeriphDriver/src/apm32f10x_fmc.c ****         FMC->OBKEY = 0xCDEF89AB;
 1333              		.loc 1 393 9 is_stmt 1 view .LVU317
 393:Library/APM32F10x_StdPeriphDriver/src/apm32f10x_fmc.c ****         FMC->OBKEY = 0xCDEF89AB;
 1334              		.loc 1 393 20 is_stmt 0 view .LVU318
 1335 001e 1E4B     		ldr	r3, .L126
 1336 0020 1E4A     		ldr	r2, .L126+4
 1337 0022 9A60     		str	r2, [r3, #8]
 394:Library/APM32F10x_StdPeriphDriver/src/apm32f10x_fmc.c ****         FMC->CTRL2_B.OBP = BIT_SET;
 1338              		.loc 1 394 9 is_stmt 1 view .LVU319
 394:Library/APM32F10x_StdPeriphDriver/src/apm32f10x_fmc.c ****         FMC->CTRL2_B.OBP = BIT_SET;
 1339              		.loc 1 394 20 is_stmt 0 view .LVU320
 1340 0024 02F18832 		add	r2, r2, #-2004318072
 1341 0028 9A60     		str	r2, [r3, #8]
 395:Library/APM32F10x_StdPeriphDriver/src/apm32f10x_fmc.c **** 
 1342              		.loc 1 395 9 is_stmt 1 view .LVU321
 395:Library/APM32F10x_StdPeriphDriver/src/apm32f10x_fmc.c **** 
 1343              		.loc 1 395 26 is_stmt 0 view .LVU322
ARM GAS  C:\Users\geehy\AppData\Local\Temp\ccqa7o7c.s 			page 48


 1344 002a 1A69     		ldr	r2, [r3, #16]
 1345 002c 42F01002 		orr	r2, r2, #16
 1346 0030 1A61     		str	r2, [r3, #16]
 397:Library/APM32F10x_StdPeriphDriver/src/apm32f10x_fmc.c ****         {
 1347              		.loc 1 397 9 is_stmt 1 view .LVU323
 397:Library/APM32F10x_StdPeriphDriver/src/apm32f10x_fmc.c ****         {
 1348              		.loc 1 397 11 is_stmt 0 view .LVU324
 1349 0032 FF2F     		cmp	r7, #255
 1350 0034 0DD1     		bne	.L122
 1351              	.L116:
 402:Library/APM32F10x_StdPeriphDriver/src/apm32f10x_fmc.c ****         {
 1352              		.loc 1 402 9 is_stmt 1 view .LVU325
 402:Library/APM32F10x_StdPeriphDriver/src/apm32f10x_fmc.c ****         {
 1353              		.loc 1 402 11 is_stmt 0 view .LVU326
 1354 0036 0428     		cmp	r0, #4
 1355 0038 12D0     		beq	.L123
 1356              	.L117:
 407:Library/APM32F10x_StdPeriphDriver/src/apm32f10x_fmc.c ****         {
 1357              		.loc 1 407 9 is_stmt 1 view .LVU327
 407:Library/APM32F10x_StdPeriphDriver/src/apm32f10x_fmc.c ****         {
 1358              		.loc 1 407 11 is_stmt 0 view .LVU328
 1359 003a 0428     		cmp	r0, #4
 1360 003c 19D0     		beq	.L124
 1361              	.L118:
 412:Library/APM32F10x_StdPeriphDriver/src/apm32f10x_fmc.c ****         {
 1362              		.loc 1 412 9 is_stmt 1 view .LVU329
 412:Library/APM32F10x_StdPeriphDriver/src/apm32f10x_fmc.c ****         {
 1363              		.loc 1 412 11 is_stmt 0 view .LVU330
 1364 003e 0428     		cmp	r0, #4
 1365 0040 20D0     		beq	.L125
 1366              	.L119:
 418:Library/APM32F10x_StdPeriphDriver/src/apm32f10x_fmc.c ****         {
 1367              		.loc 1 418 9 is_stmt 1 view .LVU331
 418:Library/APM32F10x_StdPeriphDriver/src/apm32f10x_fmc.c ****         {
 1368              		.loc 1 418 11 is_stmt 0 view .LVU332
 1369 0042 0528     		cmp	r0, #5
 1370 0044 EAD0     		beq	.L115
 420:Library/APM32F10x_StdPeriphDriver/src/apm32f10x_fmc.c ****         }
 1371              		.loc 1 420 13 is_stmt 1 view .LVU333
 420:Library/APM32F10x_StdPeriphDriver/src/apm32f10x_fmc.c ****         }
 1372              		.loc 1 420 30 is_stmt 0 view .LVU334
 1373 0046 144B     		ldr	r3, .L126
 1374 0048 1A69     		ldr	r2, [r3, #16]
 1375 004a 6FF30412 		bfc	r2, #4, #1
 1376 004e 1A61     		str	r2, [r3, #16]
 1377 0050 E4E7     		b	.L115
 1378              	.L122:
 399:Library/APM32F10x_StdPeriphDriver/src/apm32f10x_fmc.c ****             status = FMC_WaitForLastOperation(0x000B0000);
 1379              		.loc 1 399 13 is_stmt 1 view .LVU335
 399:Library/APM32F10x_StdPeriphDriver/src/apm32f10x_fmc.c ****             status = FMC_WaitForLastOperation(0x000B0000);
 1380              		.loc 1 399 22 is_stmt 0 view .LVU336
 1381 0052 134B     		ldr	r3, .L126+8
 1382 0054 1F81     		strh	r7, [r3, #8]	@ movhi
 400:Library/APM32F10x_StdPeriphDriver/src/apm32f10x_fmc.c ****         }
 1383              		.loc 1 400 13 is_stmt 1 view .LVU337
 400:Library/APM32F10x_StdPeriphDriver/src/apm32f10x_fmc.c ****         }
 1384              		.loc 1 400 22 is_stmt 0 view .LVU338
ARM GAS  C:\Users\geehy\AppData\Local\Temp\ccqa7o7c.s 			page 49


 1385 0056 4FF43020 		mov	r0, #720896
 1386              	.LVL85:
 400:Library/APM32F10x_StdPeriphDriver/src/apm32f10x_fmc.c ****         }
 1387              		.loc 1 400 22 view .LVU339
 1388 005a FFF7FEFF 		bl	FMC_WaitForLastOperation
 1389              	.LVL86:
 400:Library/APM32F10x_StdPeriphDriver/src/apm32f10x_fmc.c ****         }
 1390              		.loc 1 400 22 view .LVU340
 1391 005e EAE7     		b	.L116
 1392              	.L123:
 402:Library/APM32F10x_StdPeriphDriver/src/apm32f10x_fmc.c ****         {
 1393              		.loc 1 402 44 discriminator 1 view .LVU341
 1394 0060 FF2E     		cmp	r6, #255
 1395 0062 EAD0     		beq	.L117
 404:Library/APM32F10x_StdPeriphDriver/src/apm32f10x_fmc.c ****             status = FMC_WaitForLastOperation(0x000B0000);
 1396              		.loc 1 404 13 is_stmt 1 view .LVU342
 404:Library/APM32F10x_StdPeriphDriver/src/apm32f10x_fmc.c ****             status = FMC_WaitForLastOperation(0x000B0000);
 1397              		.loc 1 404 22 is_stmt 0 view .LVU343
 1398 0064 0E4B     		ldr	r3, .L126+8
 1399 0066 5E81     		strh	r6, [r3, #10]	@ movhi
 405:Library/APM32F10x_StdPeriphDriver/src/apm32f10x_fmc.c ****         }
 1400              		.loc 1 405 13 is_stmt 1 view .LVU344
 405:Library/APM32F10x_StdPeriphDriver/src/apm32f10x_fmc.c ****         }
 1401              		.loc 1 405 22 is_stmt 0 view .LVU345
 1402 0068 4FF43020 		mov	r0, #720896
 1403              	.LVL87:
 405:Library/APM32F10x_StdPeriphDriver/src/apm32f10x_fmc.c ****         }
 1404              		.loc 1 405 22 view .LVU346
 1405 006c FFF7FEFF 		bl	FMC_WaitForLastOperation
 1406              	.LVL88:
 405:Library/APM32F10x_StdPeriphDriver/src/apm32f10x_fmc.c ****         }
 1407              		.loc 1 405 22 view .LVU347
 1408 0070 E3E7     		b	.L117
 1409              	.L124:
 407:Library/APM32F10x_StdPeriphDriver/src/apm32f10x_fmc.c ****         {
 1410              		.loc 1 407 44 discriminator 1 view .LVU348
 1411 0072 FF2D     		cmp	r5, #255
 1412 0074 E3D0     		beq	.L118
 409:Library/APM32F10x_StdPeriphDriver/src/apm32f10x_fmc.c ****             status = FMC_WaitForLastOperation(0x000B0000);
 1413              		.loc 1 409 13 is_stmt 1 view .LVU349
 409:Library/APM32F10x_StdPeriphDriver/src/apm32f10x_fmc.c ****             status = FMC_WaitForLastOperation(0x000B0000);
 1414              		.loc 1 409 22 is_stmt 0 view .LVU350
 1415 0076 0A4B     		ldr	r3, .L126+8
 1416 0078 9D81     		strh	r5, [r3, #12]	@ movhi
 410:Library/APM32F10x_StdPeriphDriver/src/apm32f10x_fmc.c ****         }
 1417              		.loc 1 410 13 is_stmt 1 view .LVU351
 410:Library/APM32F10x_StdPeriphDriver/src/apm32f10x_fmc.c ****         }
 1418              		.loc 1 410 22 is_stmt 0 view .LVU352
 1419 007a 4FF43020 		mov	r0, #720896
 1420              	.LVL89:
 410:Library/APM32F10x_StdPeriphDriver/src/apm32f10x_fmc.c ****         }
 1421              		.loc 1 410 22 view .LVU353
 1422 007e FFF7FEFF 		bl	FMC_WaitForLastOperation
 1423              	.LVL90:
 410:Library/APM32F10x_StdPeriphDriver/src/apm32f10x_fmc.c ****         }
 1424              		.loc 1 410 22 view .LVU354
 1425 0082 DCE7     		b	.L118
ARM GAS  C:\Users\geehy\AppData\Local\Temp\ccqa7o7c.s 			page 50


 1426              	.L125:
 412:Library/APM32F10x_StdPeriphDriver/src/apm32f10x_fmc.c ****         {
 1427              		.loc 1 412 44 discriminator 1 view .LVU355
 1428 0084 FF2C     		cmp	r4, #255
 1429 0086 DCD0     		beq	.L119
 414:Library/APM32F10x_StdPeriphDriver/src/apm32f10x_fmc.c ****             status = FMC_WaitForLastOperation(0x000B0000);
 1430              		.loc 1 414 13 is_stmt 1 view .LVU356
 414:Library/APM32F10x_StdPeriphDriver/src/apm32f10x_fmc.c ****             status = FMC_WaitForLastOperation(0x000B0000);
 1431              		.loc 1 414 22 is_stmt 0 view .LVU357
 1432 0088 054B     		ldr	r3, .L126+8
 1433 008a DC81     		strh	r4, [r3, #14]	@ movhi
 415:Library/APM32F10x_StdPeriphDriver/src/apm32f10x_fmc.c ****         }
 1434              		.loc 1 415 13 is_stmt 1 view .LVU358
 415:Library/APM32F10x_StdPeriphDriver/src/apm32f10x_fmc.c ****         }
 1435              		.loc 1 415 22 is_stmt 0 view .LVU359
 1436 008c 4FF43020 		mov	r0, #720896
 1437              	.LVL91:
 415:Library/APM32F10x_StdPeriphDriver/src/apm32f10x_fmc.c ****         }
 1438              		.loc 1 415 22 view .LVU360
 1439 0090 FFF7FEFF 		bl	FMC_WaitForLastOperation
 1440              	.LVL92:
 415:Library/APM32F10x_StdPeriphDriver/src/apm32f10x_fmc.c ****         }
 1441              		.loc 1 415 22 view .LVU361
 1442 0094 D5E7     		b	.L119
 1443              	.L127:
 1444 0096 00BF     		.align	2
 1445              	.L126:
 1446 0098 00200240 		.word	1073881088
 1447 009c 23016745 		.word	1164378403
 1448 00a0 00F8FF1F 		.word	536868864
 1449              		.cfi_endproc
 1450              	.LFE78:
 1452              		.section	.text.FMC_EnableReadOutProtection,"ax",%progbits
 1453              		.align	1
 1454              		.global	FMC_EnableReadOutProtection
 1455              		.syntax unified
 1456              		.thumb
 1457              		.thumb_func
 1459              	FMC_EnableReadOutProtection:
 1460              	.LFB79:
 438:Library/APM32F10x_StdPeriphDriver/src/apm32f10x_fmc.c ****     FMC_STATUS_T status = FMC_STATUS_COMPLETE;
 1461              		.loc 1 438 1 is_stmt 1 view -0
 1462              		.cfi_startproc
 1463              		@ args = 0, pretend = 0, frame = 0
 1464              		@ frame_needed = 0, uses_anonymous_args = 0
 1465 0000 08B5     		push	{r3, lr}
 1466              	.LCFI11:
 1467              		.cfi_def_cfa_offset 8
 1468              		.cfi_offset 3, -8
 1469              		.cfi_offset 14, -4
 439:Library/APM32F10x_StdPeriphDriver/src/apm32f10x_fmc.c **** 
 1470              		.loc 1 439 5 view .LVU363
 1471              	.LVL93:
 441:Library/APM32F10x_StdPeriphDriver/src/apm32f10x_fmc.c **** 
 1472              		.loc 1 441 5 view .LVU364
 441:Library/APM32F10x_StdPeriphDriver/src/apm32f10x_fmc.c **** 
 1473              		.loc 1 441 14 is_stmt 0 view .LVU365
ARM GAS  C:\Users\geehy\AppData\Local\Temp\ccqa7o7c.s 			page 51


 1474 0002 4FF43020 		mov	r0, #720896
 1475 0006 FFF7FEFF 		bl	FMC_WaitForLastOperation
 1476              	.LVL94:
 443:Library/APM32F10x_StdPeriphDriver/src/apm32f10x_fmc.c ****     {
 1477              		.loc 1 443 5 is_stmt 1 view .LVU366
 443:Library/APM32F10x_StdPeriphDriver/src/apm32f10x_fmc.c ****     {
 1478              		.loc 1 443 7 is_stmt 0 view .LVU367
 1479 000a 0428     		cmp	r0, #4
 1480 000c 00D0     		beq	.L132
 1481              	.L129:
 471:Library/APM32F10x_StdPeriphDriver/src/apm32f10x_fmc.c **** }
 1482              		.loc 1 471 5 is_stmt 1 view .LVU368
 472:Library/APM32F10x_StdPeriphDriver/src/apm32f10x_fmc.c **** 
 1483              		.loc 1 472 1 is_stmt 0 view .LVU369
 1484 000e 08BD     		pop	{r3, pc}
 1485              	.L132:
 445:Library/APM32F10x_StdPeriphDriver/src/apm32f10x_fmc.c ****         FMC->OBKEY = 0xCDEF89AB;
 1486              		.loc 1 445 9 is_stmt 1 view .LVU370
 445:Library/APM32F10x_StdPeriphDriver/src/apm32f10x_fmc.c ****         FMC->OBKEY = 0xCDEF89AB;
 1487              		.loc 1 445 20 is_stmt 0 view .LVU371
 1488 0010 194B     		ldr	r3, .L134
 1489 0012 1A4A     		ldr	r2, .L134+4
 1490 0014 9A60     		str	r2, [r3, #8]
 446:Library/APM32F10x_StdPeriphDriver/src/apm32f10x_fmc.c **** 
 1491              		.loc 1 446 9 is_stmt 1 view .LVU372
 446:Library/APM32F10x_StdPeriphDriver/src/apm32f10x_fmc.c **** 
 1492              		.loc 1 446 20 is_stmt 0 view .LVU373
 1493 0016 02F18832 		add	r2, r2, #-2004318072
 1494 001a 9A60     		str	r2, [r3, #8]
 448:Library/APM32F10x_StdPeriphDriver/src/apm32f10x_fmc.c ****         FMC->CTRL2_B.STA = BIT_SET;
 1495              		.loc 1 448 9 is_stmt 1 view .LVU374
 448:Library/APM32F10x_StdPeriphDriver/src/apm32f10x_fmc.c ****         FMC->CTRL2_B.STA = BIT_SET;
 1496              		.loc 1 448 26 is_stmt 0 view .LVU375
 1497 001c 1A69     		ldr	r2, [r3, #16]
 1498 001e 42F02002 		orr	r2, r2, #32
 1499 0022 1A61     		str	r2, [r3, #16]
 449:Library/APM32F10x_StdPeriphDriver/src/apm32f10x_fmc.c **** 
 1500              		.loc 1 449 9 is_stmt 1 view .LVU376
 449:Library/APM32F10x_StdPeriphDriver/src/apm32f10x_fmc.c **** 
 1501              		.loc 1 449 26 is_stmt 0 view .LVU377
 1502 0024 1A69     		ldr	r2, [r3, #16]
 1503 0026 42F04002 		orr	r2, r2, #64
 1504 002a 1A61     		str	r2, [r3, #16]
 451:Library/APM32F10x_StdPeriphDriver/src/apm32f10x_fmc.c **** 
 1505              		.loc 1 451 9 is_stmt 1 view .LVU378
 451:Library/APM32F10x_StdPeriphDriver/src/apm32f10x_fmc.c **** 
 1506              		.loc 1 451 18 is_stmt 0 view .LVU379
 1507 002c 4FF43020 		mov	r0, #720896
 1508              	.LVL95:
 451:Library/APM32F10x_StdPeriphDriver/src/apm32f10x_fmc.c **** 
 1509              		.loc 1 451 18 view .LVU380
 1510 0030 FFF7FEFF 		bl	FMC_WaitForLastOperation
 1511              	.LVL96:
 453:Library/APM32F10x_StdPeriphDriver/src/apm32f10x_fmc.c ****         {
 1512              		.loc 1 453 9 is_stmt 1 view .LVU381
 453:Library/APM32F10x_StdPeriphDriver/src/apm32f10x_fmc.c ****         {
 1513              		.loc 1 453 11 is_stmt 0 view .LVU382
ARM GAS  C:\Users\geehy\AppData\Local\Temp\ccqa7o7c.s 			page 52


 1514 0034 0428     		cmp	r0, #4
 1515 0036 07D0     		beq	.L133
 466:Library/APM32F10x_StdPeriphDriver/src/apm32f10x_fmc.c ****         {
 1516              		.loc 1 466 14 is_stmt 1 view .LVU383
 466:Library/APM32F10x_StdPeriphDriver/src/apm32f10x_fmc.c ****         {
 1517              		.loc 1 466 16 is_stmt 0 view .LVU384
 1518 0038 0528     		cmp	r0, #5
 1519 003a E8D0     		beq	.L129
 468:Library/APM32F10x_StdPeriphDriver/src/apm32f10x_fmc.c ****         }
 1520              		.loc 1 468 13 is_stmt 1 view .LVU385
 468:Library/APM32F10x_StdPeriphDriver/src/apm32f10x_fmc.c ****         }
 1521              		.loc 1 468 30 is_stmt 0 view .LVU386
 1522 003c 0E4B     		ldr	r3, .L134
 1523 003e 1A69     		ldr	r2, [r3, #16]
 1524 0040 6FF34512 		bfc	r2, #5, #1
 1525 0044 1A61     		str	r2, [r3, #16]
 1526 0046 E2E7     		b	.L129
 1527              	.L133:
 455:Library/APM32F10x_StdPeriphDriver/src/apm32f10x_fmc.c ****             FMC->CTRL2_B.OBP = BIT_SET;
 1528              		.loc 1 455 13 is_stmt 1 view .LVU387
 455:Library/APM32F10x_StdPeriphDriver/src/apm32f10x_fmc.c ****             FMC->CTRL2_B.OBP = BIT_SET;
 1529              		.loc 1 455 30 is_stmt 0 view .LVU388
 1530 0048 0B4B     		ldr	r3, .L134
 1531 004a 1A69     		ldr	r2, [r3, #16]
 1532 004c 6FF34512 		bfc	r2, #5, #1
 1533 0050 1A61     		str	r2, [r3, #16]
 456:Library/APM32F10x_StdPeriphDriver/src/apm32f10x_fmc.c ****             OB->RDP = 0x00A5;
 1534              		.loc 1 456 13 is_stmt 1 view .LVU389
 456:Library/APM32F10x_StdPeriphDriver/src/apm32f10x_fmc.c ****             OB->RDP = 0x00A5;
 1535              		.loc 1 456 30 is_stmt 0 view .LVU390
 1536 0052 1A69     		ldr	r2, [r3, #16]
 1537 0054 42F01002 		orr	r2, r2, #16
 1538 0058 1A61     		str	r2, [r3, #16]
 457:Library/APM32F10x_StdPeriphDriver/src/apm32f10x_fmc.c **** 
 1539              		.loc 1 457 13 is_stmt 1 view .LVU391
 457:Library/APM32F10x_StdPeriphDriver/src/apm32f10x_fmc.c **** 
 1540              		.loc 1 457 21 is_stmt 0 view .LVU392
 1541 005a 094B     		ldr	r3, .L134+8
 1542 005c A522     		movs	r2, #165
 1543 005e 1A80     		strh	r2, [r3]	@ movhi
 459:Library/APM32F10x_StdPeriphDriver/src/apm32f10x_fmc.c **** 
 1544              		.loc 1 459 13 is_stmt 1 view .LVU393
 459:Library/APM32F10x_StdPeriphDriver/src/apm32f10x_fmc.c **** 
 1545              		.loc 1 459 22 is_stmt 0 view .LVU394
 1546 0060 4FF43020 		mov	r0, #720896
 1547              	.LVL97:
 459:Library/APM32F10x_StdPeriphDriver/src/apm32f10x_fmc.c **** 
 1548              		.loc 1 459 22 view .LVU395
 1549 0064 FFF7FEFF 		bl	FMC_WaitForLastOperation
 1550              	.LVL98:
 461:Library/APM32F10x_StdPeriphDriver/src/apm32f10x_fmc.c ****             {
 1551              		.loc 1 461 13 is_stmt 1 view .LVU396
 461:Library/APM32F10x_StdPeriphDriver/src/apm32f10x_fmc.c ****             {
 1552              		.loc 1 461 15 is_stmt 0 view .LVU397
 1553 0068 0528     		cmp	r0, #5
 1554 006a D0D0     		beq	.L129
 463:Library/APM32F10x_StdPeriphDriver/src/apm32f10x_fmc.c ****             }
ARM GAS  C:\Users\geehy\AppData\Local\Temp\ccqa7o7c.s 			page 53


 1555              		.loc 1 463 17 is_stmt 1 view .LVU398
 463:Library/APM32F10x_StdPeriphDriver/src/apm32f10x_fmc.c ****             }
 1556              		.loc 1 463 34 is_stmt 0 view .LVU399
 1557 006c 024B     		ldr	r3, .L134
 1558 006e 1A69     		ldr	r2, [r3, #16]
 1559 0070 6FF30412 		bfc	r2, #4, #1
 1560 0074 1A61     		str	r2, [r3, #16]
 1561 0076 CAE7     		b	.L129
 1562              	.L135:
 1563              		.align	2
 1564              	.L134:
 1565 0078 00200240 		.word	1073881088
 1566 007c 23016745 		.word	1164378403
 1567 0080 00F8FF1F 		.word	536868864
 1568              		.cfi_endproc
 1569              	.LFE79:
 1571              		.section	.text.FMC_DisableReadOutProtection,"ax",%progbits
 1572              		.align	1
 1573              		.global	FMC_DisableReadOutProtection
 1574              		.syntax unified
 1575              		.thumb
 1576              		.thumb_func
 1578              	FMC_DisableReadOutProtection:
 1579              	.LFB80:
 486:Library/APM32F10x_StdPeriphDriver/src/apm32f10x_fmc.c ****     FMC_STATUS_T status = FMC_STATUS_COMPLETE;
 1580              		.loc 1 486 1 is_stmt 1 view -0
 1581              		.cfi_startproc
 1582              		@ args = 0, pretend = 0, frame = 0
 1583              		@ frame_needed = 0, uses_anonymous_args = 0
 1584 0000 08B5     		push	{r3, lr}
 1585              	.LCFI12:
 1586              		.cfi_def_cfa_offset 8
 1587              		.cfi_offset 3, -8
 1588              		.cfi_offset 14, -4
 487:Library/APM32F10x_StdPeriphDriver/src/apm32f10x_fmc.c **** 
 1589              		.loc 1 487 5 view .LVU401
 1590              	.LVL99:
 489:Library/APM32F10x_StdPeriphDriver/src/apm32f10x_fmc.c **** 
 1591              		.loc 1 489 5 view .LVU402
 489:Library/APM32F10x_StdPeriphDriver/src/apm32f10x_fmc.c **** 
 1592              		.loc 1 489 14 is_stmt 0 view .LVU403
 1593 0002 4FF43020 		mov	r0, #720896
 1594 0006 FFF7FEFF 		bl	FMC_WaitForLastOperation
 1595              	.LVL100:
 491:Library/APM32F10x_StdPeriphDriver/src/apm32f10x_fmc.c ****     {
 1596              		.loc 1 491 5 is_stmt 1 view .LVU404
 491:Library/APM32F10x_StdPeriphDriver/src/apm32f10x_fmc.c ****     {
 1597              		.loc 1 491 7 is_stmt 0 view .LVU405
 1598 000a 0428     		cmp	r0, #4
 1599 000c 00D0     		beq	.L140
 1600              	.L137:
 518:Library/APM32F10x_StdPeriphDriver/src/apm32f10x_fmc.c **** }
 1601              		.loc 1 518 5 is_stmt 1 view .LVU406
 519:Library/APM32F10x_StdPeriphDriver/src/apm32f10x_fmc.c **** 
 1602              		.loc 1 519 1 is_stmt 0 view .LVU407
 1603 000e 08BD     		pop	{r3, pc}
 1604              	.L140:
ARM GAS  C:\Users\geehy\AppData\Local\Temp\ccqa7o7c.s 			page 54


 493:Library/APM32F10x_StdPeriphDriver/src/apm32f10x_fmc.c ****         FMC->OBKEY = 0xCDEF89AB;
 1605              		.loc 1 493 9 is_stmt 1 view .LVU408
 493:Library/APM32F10x_StdPeriphDriver/src/apm32f10x_fmc.c ****         FMC->OBKEY = 0xCDEF89AB;
 1606              		.loc 1 493 20 is_stmt 0 view .LVU409
 1607 0010 194B     		ldr	r3, .L142
 1608 0012 1A4A     		ldr	r2, .L142+4
 1609 0014 9A60     		str	r2, [r3, #8]
 494:Library/APM32F10x_StdPeriphDriver/src/apm32f10x_fmc.c ****         FMC->CTRL2_B.OBE = BIT_SET;
 1610              		.loc 1 494 9 is_stmt 1 view .LVU410
 494:Library/APM32F10x_StdPeriphDriver/src/apm32f10x_fmc.c ****         FMC->CTRL2_B.OBE = BIT_SET;
 1611              		.loc 1 494 20 is_stmt 0 view .LVU411
 1612 0016 02F18832 		add	r2, r2, #-2004318072
 1613 001a 9A60     		str	r2, [r3, #8]
 495:Library/APM32F10x_StdPeriphDriver/src/apm32f10x_fmc.c ****         FMC->CTRL2_B.STA = BIT_SET;
 1614              		.loc 1 495 9 is_stmt 1 view .LVU412
 495:Library/APM32F10x_StdPeriphDriver/src/apm32f10x_fmc.c ****         FMC->CTRL2_B.STA = BIT_SET;
 1615              		.loc 1 495 26 is_stmt 0 view .LVU413
 1616 001c 1A69     		ldr	r2, [r3, #16]
 1617 001e 42F02002 		orr	r2, r2, #32
 1618 0022 1A61     		str	r2, [r3, #16]
 496:Library/APM32F10x_StdPeriphDriver/src/apm32f10x_fmc.c **** 
 1619              		.loc 1 496 9 is_stmt 1 view .LVU414
 496:Library/APM32F10x_StdPeriphDriver/src/apm32f10x_fmc.c **** 
 1620              		.loc 1 496 26 is_stmt 0 view .LVU415
 1621 0024 1A69     		ldr	r2, [r3, #16]
 1622 0026 42F04002 		orr	r2, r2, #64
 1623 002a 1A61     		str	r2, [r3, #16]
 498:Library/APM32F10x_StdPeriphDriver/src/apm32f10x_fmc.c **** 
 1624              		.loc 1 498 9 is_stmt 1 view .LVU416
 498:Library/APM32F10x_StdPeriphDriver/src/apm32f10x_fmc.c **** 
 1625              		.loc 1 498 18 is_stmt 0 view .LVU417
 1626 002c 4FF43020 		mov	r0, #720896
 1627              	.LVL101:
 498:Library/APM32F10x_StdPeriphDriver/src/apm32f10x_fmc.c **** 
 1628              		.loc 1 498 18 view .LVU418
 1629 0030 FFF7FEFF 		bl	FMC_WaitForLastOperation
 1630              	.LVL102:
 500:Library/APM32F10x_StdPeriphDriver/src/apm32f10x_fmc.c ****         {
 1631              		.loc 1 500 9 is_stmt 1 view .LVU419
 500:Library/APM32F10x_StdPeriphDriver/src/apm32f10x_fmc.c ****         {
 1632              		.loc 1 500 11 is_stmt 0 view .LVU420
 1633 0034 0428     		cmp	r0, #4
 1634 0036 07D0     		beq	.L141
 513:Library/APM32F10x_StdPeriphDriver/src/apm32f10x_fmc.c ****         {
 1635              		.loc 1 513 14 is_stmt 1 view .LVU421
 513:Library/APM32F10x_StdPeriphDriver/src/apm32f10x_fmc.c ****         {
 1636              		.loc 1 513 16 is_stmt 0 view .LVU422
 1637 0038 0528     		cmp	r0, #5
 1638 003a E8D0     		beq	.L137
 515:Library/APM32F10x_StdPeriphDriver/src/apm32f10x_fmc.c ****         }
 1639              		.loc 1 515 13 is_stmt 1 view .LVU423
 515:Library/APM32F10x_StdPeriphDriver/src/apm32f10x_fmc.c ****         }
 1640              		.loc 1 515 30 is_stmt 0 view .LVU424
 1641 003c 0E4B     		ldr	r3, .L142
 1642 003e 1A69     		ldr	r2, [r3, #16]
 1643 0040 6FF34512 		bfc	r2, #5, #1
 1644 0044 1A61     		str	r2, [r3, #16]
ARM GAS  C:\Users\geehy\AppData\Local\Temp\ccqa7o7c.s 			page 55


 1645 0046 E2E7     		b	.L137
 1646              	.L141:
 502:Library/APM32F10x_StdPeriphDriver/src/apm32f10x_fmc.c ****             FMC->CTRL2_B.OBP = BIT_SET;
 1647              		.loc 1 502 13 is_stmt 1 view .LVU425
 502:Library/APM32F10x_StdPeriphDriver/src/apm32f10x_fmc.c ****             FMC->CTRL2_B.OBP = BIT_SET;
 1648              		.loc 1 502 30 is_stmt 0 view .LVU426
 1649 0048 0B4B     		ldr	r3, .L142
 1650 004a 1A69     		ldr	r2, [r3, #16]
 1651 004c 6FF34512 		bfc	r2, #5, #1
 1652 0050 1A61     		str	r2, [r3, #16]
 503:Library/APM32F10x_StdPeriphDriver/src/apm32f10x_fmc.c ****             OB->RDP = 0x00;
 1653              		.loc 1 503 13 is_stmt 1 view .LVU427
 503:Library/APM32F10x_StdPeriphDriver/src/apm32f10x_fmc.c ****             OB->RDP = 0x00;
 1654              		.loc 1 503 30 is_stmt 0 view .LVU428
 1655 0052 1A69     		ldr	r2, [r3, #16]
 1656 0054 42F01002 		orr	r2, r2, #16
 1657 0058 1A61     		str	r2, [r3, #16]
 504:Library/APM32F10x_StdPeriphDriver/src/apm32f10x_fmc.c **** 
 1658              		.loc 1 504 13 is_stmt 1 view .LVU429
 504:Library/APM32F10x_StdPeriphDriver/src/apm32f10x_fmc.c **** 
 1659              		.loc 1 504 21 is_stmt 0 view .LVU430
 1660 005a 094B     		ldr	r3, .L142+8
 1661 005c 0022     		movs	r2, #0
 1662 005e 1A80     		strh	r2, [r3]	@ movhi
 506:Library/APM32F10x_StdPeriphDriver/src/apm32f10x_fmc.c **** 
 1663              		.loc 1 506 13 is_stmt 1 view .LVU431
 506:Library/APM32F10x_StdPeriphDriver/src/apm32f10x_fmc.c **** 
 1664              		.loc 1 506 22 is_stmt 0 view .LVU432
 1665 0060 4FF43020 		mov	r0, #720896
 1666              	.LVL103:
 506:Library/APM32F10x_StdPeriphDriver/src/apm32f10x_fmc.c **** 
 1667              		.loc 1 506 22 view .LVU433
 1668 0064 FFF7FEFF 		bl	FMC_WaitForLastOperation
 1669              	.LVL104:
 508:Library/APM32F10x_StdPeriphDriver/src/apm32f10x_fmc.c ****             {
 1670              		.loc 1 508 13 is_stmt 1 view .LVU434
 508:Library/APM32F10x_StdPeriphDriver/src/apm32f10x_fmc.c ****             {
 1671              		.loc 1 508 15 is_stmt 0 view .LVU435
 1672 0068 0528     		cmp	r0, #5
 1673 006a D0D0     		beq	.L137
 510:Library/APM32F10x_StdPeriphDriver/src/apm32f10x_fmc.c ****             }
 1674              		.loc 1 510 17 is_stmt 1 view .LVU436
 510:Library/APM32F10x_StdPeriphDriver/src/apm32f10x_fmc.c ****             }
 1675              		.loc 1 510 34 is_stmt 0 view .LVU437
 1676 006c 024B     		ldr	r3, .L142
 1677 006e 1A69     		ldr	r2, [r3, #16]
 1678 0070 6FF30412 		bfc	r2, #4, #1
 1679 0074 1A61     		str	r2, [r3, #16]
 1680 0076 CAE7     		b	.L137
 1681              	.L143:
 1682              		.align	2
 1683              	.L142:
 1684 0078 00200240 		.word	1073881088
 1685 007c 23016745 		.word	1164378403
 1686 0080 00F8FF1F 		.word	536868864
 1687              		.cfi_endproc
 1688              	.LFE80:
ARM GAS  C:\Users\geehy\AppData\Local\Temp\ccqa7o7c.s 			page 56


 1690              		.section	.text.FMC_ConfigUserOptionByte,"ax",%progbits
 1691              		.align	1
 1692              		.global	FMC_ConfigUserOptionByte
 1693              		.syntax unified
 1694              		.thumb
 1695              		.thumb_func
 1697              	FMC_ConfigUserOptionByte:
 1698              	.LVL105:
 1699              	.LFB81:
 533:Library/APM32F10x_StdPeriphDriver/src/apm32f10x_fmc.c ****     FMC_STATUS_T status = FMC_STATUS_COMPLETE;
 1700              		.loc 1 533 1 is_stmt 1 view -0
 1701              		.cfi_startproc
 1702              		@ args = 0, pretend = 0, frame = 0
 1703              		@ frame_needed = 0, uses_anonymous_args = 0
 533:Library/APM32F10x_StdPeriphDriver/src/apm32f10x_fmc.c ****     FMC_STATUS_T status = FMC_STATUS_COMPLETE;
 1704              		.loc 1 533 1 is_stmt 0 view .LVU439
 1705 0000 10B5     		push	{r4, lr}
 1706              	.LCFI13:
 1707              		.cfi_def_cfa_offset 8
 1708              		.cfi_offset 4, -8
 1709              		.cfi_offset 14, -4
 1710 0002 0446     		mov	r4, r0
 534:Library/APM32F10x_StdPeriphDriver/src/apm32f10x_fmc.c **** 
 1711              		.loc 1 534 5 is_stmt 1 view .LVU440
 1712              	.LVL106:
 536:Library/APM32F10x_StdPeriphDriver/src/apm32f10x_fmc.c ****     FMC->OBKEY = 0xCDEF89AB;
 1713              		.loc 1 536 5 view .LVU441
 536:Library/APM32F10x_StdPeriphDriver/src/apm32f10x_fmc.c ****     FMC->OBKEY = 0xCDEF89AB;
 1714              		.loc 1 536 16 is_stmt 0 view .LVU442
 1715 0004 134B     		ldr	r3, .L148
 1716 0006 144A     		ldr	r2, .L148+4
 1717 0008 9A60     		str	r2, [r3, #8]
 537:Library/APM32F10x_StdPeriphDriver/src/apm32f10x_fmc.c **** 
 1718              		.loc 1 537 5 is_stmt 1 view .LVU443
 537:Library/APM32F10x_StdPeriphDriver/src/apm32f10x_fmc.c **** 
 1719              		.loc 1 537 16 is_stmt 0 view .LVU444
 1720 000a 02F18832 		add	r2, r2, #-2004318072
 1721 000e 9A60     		str	r2, [r3, #8]
 539:Library/APM32F10x_StdPeriphDriver/src/apm32f10x_fmc.c **** 
 1722              		.loc 1 539 5 is_stmt 1 view .LVU445
 539:Library/APM32F10x_StdPeriphDriver/src/apm32f10x_fmc.c **** 
 1723              		.loc 1 539 14 is_stmt 0 view .LVU446
 1724 0010 4FF43020 		mov	r0, #720896
 1725              	.LVL107:
 539:Library/APM32F10x_StdPeriphDriver/src/apm32f10x_fmc.c **** 
 1726              		.loc 1 539 14 view .LVU447
 1727 0014 FFF7FEFF 		bl	FMC_WaitForLastOperation
 1728              	.LVL108:
 541:Library/APM32F10x_StdPeriphDriver/src/apm32f10x_fmc.c ****     {
 1729              		.loc 1 541 5 is_stmt 1 view .LVU448
 541:Library/APM32F10x_StdPeriphDriver/src/apm32f10x_fmc.c ****     {
 1730              		.loc 1 541 7 is_stmt 0 view .LVU449
 1731 0018 0428     		cmp	r0, #4
 1732 001a 00D0     		beq	.L147
 1733              	.L145:
 553:Library/APM32F10x_StdPeriphDriver/src/apm32f10x_fmc.c **** }
 1734              		.loc 1 553 5 is_stmt 1 view .LVU450
ARM GAS  C:\Users\geehy\AppData\Local\Temp\ccqa7o7c.s 			page 57


 554:Library/APM32F10x_StdPeriphDriver/src/apm32f10x_fmc.c **** 
 1735              		.loc 1 554 1 is_stmt 0 view .LVU451
 1736 001c 10BD     		pop	{r4, pc}
 1737              	.LVL109:
 1738              	.L147:
 543:Library/APM32F10x_StdPeriphDriver/src/apm32f10x_fmc.c ****         OB->USER = (uint32_t)userConfig->iwdtSet | \
 1739              		.loc 1 543 9 is_stmt 1 view .LVU452
 543:Library/APM32F10x_StdPeriphDriver/src/apm32f10x_fmc.c ****         OB->USER = (uint32_t)userConfig->iwdtSet | \
 1740              		.loc 1 543 26 is_stmt 0 view .LVU453
 1741 001e 0D4A     		ldr	r2, .L148
 1742 0020 1369     		ldr	r3, [r2, #16]
 1743 0022 43F01003 		orr	r3, r3, #16
 1744 0026 1361     		str	r3, [r2, #16]
 544:Library/APM32F10x_StdPeriphDriver/src/apm32f10x_fmc.c ****                    (uint32_t)userConfig->stopSet | \
 1745              		.loc 1 544 9 is_stmt 1 view .LVU454
 544:Library/APM32F10x_StdPeriphDriver/src/apm32f10x_fmc.c ****                    (uint32_t)userConfig->stopSet | \
 1746              		.loc 1 544 40 is_stmt 0 view .LVU455
 1747 0028 2278     		ldrb	r2, [r4]	@ zero_extendqisi2
 545:Library/APM32F10x_StdPeriphDriver/src/apm32f10x_fmc.c ****                    (uint32_t)userConfig->stdbySet | 0xF8;
 1748              		.loc 1 545 40 view .LVU456
 1749 002a 6178     		ldrb	r1, [r4, #1]	@ zero_extendqisi2
 546:Library/APM32F10x_StdPeriphDriver/src/apm32f10x_fmc.c ****         status = FMC_WaitForLastOperation(0x000B0000);
 1750              		.loc 1 546 40 view .LVU457
 1751 002c A378     		ldrb	r3, [r4, #2]	@ zero_extendqisi2
 544:Library/APM32F10x_StdPeriphDriver/src/apm32f10x_fmc.c ****                    (uint32_t)userConfig->stopSet | \
 1752              		.loc 1 544 18 view .LVU458
 1753 002e 0A43     		orrs	r2, r2, r1
 1754 0030 1343     		orrs	r3, r3, r2
 1755 0032 43F0F803 		orr	r3, r3, #248
 1756 0036 094A     		ldr	r2, .L148+8
 1757 0038 5380     		strh	r3, [r2, #2]	@ movhi
 547:Library/APM32F10x_StdPeriphDriver/src/apm32f10x_fmc.c ****         if(status == FMC_STATUS_TIMEOUT)
 1758              		.loc 1 547 9 is_stmt 1 view .LVU459
 547:Library/APM32F10x_StdPeriphDriver/src/apm32f10x_fmc.c ****         if(status == FMC_STATUS_TIMEOUT)
 1759              		.loc 1 547 18 is_stmt 0 view .LVU460
 1760 003a 4FF43020 		mov	r0, #720896
 1761              	.LVL110:
 547:Library/APM32F10x_StdPeriphDriver/src/apm32f10x_fmc.c ****         if(status == FMC_STATUS_TIMEOUT)
 1762              		.loc 1 547 18 view .LVU461
 1763 003e FFF7FEFF 		bl	FMC_WaitForLastOperation
 1764              	.LVL111:
 548:Library/APM32F10x_StdPeriphDriver/src/apm32f10x_fmc.c ****         {
 1765              		.loc 1 548 9 is_stmt 1 view .LVU462
 548:Library/APM32F10x_StdPeriphDriver/src/apm32f10x_fmc.c ****         {
 1766              		.loc 1 548 11 is_stmt 0 view .LVU463
 1767 0042 0528     		cmp	r0, #5
 1768 0044 EAD1     		bne	.L145
 550:Library/APM32F10x_StdPeriphDriver/src/apm32f10x_fmc.c ****         }
 1769              		.loc 1 550 13 is_stmt 1 view .LVU464
 550:Library/APM32F10x_StdPeriphDriver/src/apm32f10x_fmc.c ****         }
 1770              		.loc 1 550 30 is_stmt 0 view .LVU465
 1771 0046 034B     		ldr	r3, .L148
 1772 0048 1A69     		ldr	r2, [r3, #16]
 1773 004a 6FF30412 		bfc	r2, #4, #1
 1774 004e 1A61     		str	r2, [r3, #16]
 1775 0050 E4E7     		b	.L145
 1776              	.L149:
ARM GAS  C:\Users\geehy\AppData\Local\Temp\ccqa7o7c.s 			page 58


 1777 0052 00BF     		.align	2
 1778              	.L148:
 1779 0054 00200240 		.word	1073881088
 1780 0058 23016745 		.word	1164378403
 1781 005c 00F8FF1F 		.word	536868864
 1782              		.cfi_endproc
 1783              	.LFE81:
 1785              		.text
 1786              	.Letext0:
 1787              		.file 3 "d:\\program files (x86)\\gnu arm embedded toolchain\\10 2021.10\\arm-none-eabi\\include\\
 1788              		.file 4 "d:\\program files (x86)\\gnu arm embedded toolchain\\10 2021.10\\arm-none-eabi\\include\\
 1789              		.file 5 "Library/Device/Geehy/APM32F10x/Include/apm32f10x.h"
 1790              		.file 6 "Library/APM32F10x_StdPeriphDriver/inc/apm32f10x_fmc.h"
ARM GAS  C:\Users\geehy\AppData\Local\Temp\ccqa7o7c.s 			page 59

