ARM GAS  C:\Users\geehy\AppData\Local\Temp\ccYSLlwr.s 			page 1


   1              		.cpu cortex-m3
   2              		.arch armv7-m
   3              		.fpu softvfp
   4              		.eabi_attribute 20, 1
   5              		.eabi_attribute 21, 1
   6              		.eabi_attribute 23, 3
   7              		.eabi_attribute 24, 1
   8              		.eabi_attribute 25, 1
   9              		.eabi_attribute 26, 1
  10              		.eabi_attribute 30, 1
  11              		.eabi_attribute 34, 1
  12              		.eabi_attribute 18, 4
  13              		.file	"apm32f10x_rcm.c"
  14              		.text
  15              	.Ltext0:
  16              		.cfi_sections	.debug_frame
  17              		.section	.text.RCM_Reset,"ax",%progbits
  18              		.align	1
  19              		.global	RCM_Reset
  20              		.syntax unified
  21              		.thumb
  22              		.thumb_func
  24              	RCM_Reset:
  25              	.LFB65:
  26              		.file 1 "Library/APM32F10x_StdPeriphDriver/src/apm32f10x_rcm.c"
   1:Library/APM32F10x_StdPeriphDriver/src/apm32f10x_rcm.c **** /*!
   2:Library/APM32F10x_StdPeriphDriver/src/apm32f10x_rcm.c ****  * @file        apm32f10x_rcm.c
   3:Library/APM32F10x_StdPeriphDriver/src/apm32f10x_rcm.c ****  *
   4:Library/APM32F10x_StdPeriphDriver/src/apm32f10x_rcm.c ****  * @brief       This file provides all the RCM firmware functions
   5:Library/APM32F10x_StdPeriphDriver/src/apm32f10x_rcm.c ****  *
   6:Library/APM32F10x_StdPeriphDriver/src/apm32f10x_rcm.c ****  * @version     V1.0.2
   7:Library/APM32F10x_StdPeriphDriver/src/apm32f10x_rcm.c ****  *
   8:Library/APM32F10x_StdPeriphDriver/src/apm32f10x_rcm.c ****  * @date        2022-01-05
   9:Library/APM32F10x_StdPeriphDriver/src/apm32f10x_rcm.c ****  *
  10:Library/APM32F10x_StdPeriphDriver/src/apm32f10x_rcm.c ****  * @attention
  11:Library/APM32F10x_StdPeriphDriver/src/apm32f10x_rcm.c ****  *
  12:Library/APM32F10x_StdPeriphDriver/src/apm32f10x_rcm.c ****  *  Copyright (C) 2020-2022 Geehy Semiconductor
  13:Library/APM32F10x_StdPeriphDriver/src/apm32f10x_rcm.c ****  *
  14:Library/APM32F10x_StdPeriphDriver/src/apm32f10x_rcm.c ****  *  You may not use this file except in compliance with the
  15:Library/APM32F10x_StdPeriphDriver/src/apm32f10x_rcm.c ****  *  GEEHY COPYRIGHT NOTICE (GEEHY SOFTWARE PACKAGE LICENSE).
  16:Library/APM32F10x_StdPeriphDriver/src/apm32f10x_rcm.c ****  *
  17:Library/APM32F10x_StdPeriphDriver/src/apm32f10x_rcm.c ****  *  The program is only for reference, which is distributed in the hope
  18:Library/APM32F10x_StdPeriphDriver/src/apm32f10x_rcm.c ****  *  that it will be usefull and instructional for customers to develop
  19:Library/APM32F10x_StdPeriphDriver/src/apm32f10x_rcm.c ****  *  their software. Unless required by applicable law or agreed to in
  20:Library/APM32F10x_StdPeriphDriver/src/apm32f10x_rcm.c ****  *  writing, the program is distributed on an "AS IS" BASIS, WITHOUT
  21:Library/APM32F10x_StdPeriphDriver/src/apm32f10x_rcm.c ****  *  ANY WARRANTY OR CONDITIONS OF ANY KIND, either express or implied.
  22:Library/APM32F10x_StdPeriphDriver/src/apm32f10x_rcm.c ****  *  See the GEEHY SOFTWARE PACKAGE LICENSE for the governing permissions
  23:Library/APM32F10x_StdPeriphDriver/src/apm32f10x_rcm.c ****  *  and limitations under the License.
  24:Library/APM32F10x_StdPeriphDriver/src/apm32f10x_rcm.c ****  */
  25:Library/APM32F10x_StdPeriphDriver/src/apm32f10x_rcm.c **** 
  26:Library/APM32F10x_StdPeriphDriver/src/apm32f10x_rcm.c **** #include "apm32f10x_rcm.h"
  27:Library/APM32F10x_StdPeriphDriver/src/apm32f10x_rcm.c **** 
  28:Library/APM32F10x_StdPeriphDriver/src/apm32f10x_rcm.c **** /** @addtogroup Peripherals_Library Standard Peripheral Library
  29:Library/APM32F10x_StdPeriphDriver/src/apm32f10x_rcm.c ****   @{
  30:Library/APM32F10x_StdPeriphDriver/src/apm32f10x_rcm.c **** */
  31:Library/APM32F10x_StdPeriphDriver/src/apm32f10x_rcm.c **** 
  32:Library/APM32F10x_StdPeriphDriver/src/apm32f10x_rcm.c **** /** @addtogroup RCM_Driver RCM Driver
ARM GAS  C:\Users\geehy\AppData\Local\Temp\ccYSLlwr.s 			page 2


  33:Library/APM32F10x_StdPeriphDriver/src/apm32f10x_rcm.c ****   @{
  34:Library/APM32F10x_StdPeriphDriver/src/apm32f10x_rcm.c **** */
  35:Library/APM32F10x_StdPeriphDriver/src/apm32f10x_rcm.c **** 
  36:Library/APM32F10x_StdPeriphDriver/src/apm32f10x_rcm.c **** /** @addtogroup RCM_Fuctions Fuctions
  37:Library/APM32F10x_StdPeriphDriver/src/apm32f10x_rcm.c ****   @{
  38:Library/APM32F10x_StdPeriphDriver/src/apm32f10x_rcm.c **** */
  39:Library/APM32F10x_StdPeriphDriver/src/apm32f10x_rcm.c **** 
  40:Library/APM32F10x_StdPeriphDriver/src/apm32f10x_rcm.c **** /*!
  41:Library/APM32F10x_StdPeriphDriver/src/apm32f10x_rcm.c ****  * @brief     Resets the clock configuration to the default state
  42:Library/APM32F10x_StdPeriphDriver/src/apm32f10x_rcm.c ****  *
  43:Library/APM32F10x_StdPeriphDriver/src/apm32f10x_rcm.c ****  * @param     None
  44:Library/APM32F10x_StdPeriphDriver/src/apm32f10x_rcm.c ****  *
  45:Library/APM32F10x_StdPeriphDriver/src/apm32f10x_rcm.c ****  * @retval    None
  46:Library/APM32F10x_StdPeriphDriver/src/apm32f10x_rcm.c ****  */
  47:Library/APM32F10x_StdPeriphDriver/src/apm32f10x_rcm.c **** void RCM_Reset(void)
  48:Library/APM32F10x_StdPeriphDriver/src/apm32f10x_rcm.c **** {
  27              		.loc 1 48 1 view -0
  28              		.cfi_startproc
  29              		@ args = 0, pretend = 0, frame = 0
  30              		@ frame_needed = 0, uses_anonymous_args = 0
  31              		@ link register save eliminated.
  49:Library/APM32F10x_StdPeriphDriver/src/apm32f10x_rcm.c ****     /** Open HSI clock */
  50:Library/APM32F10x_StdPeriphDriver/src/apm32f10x_rcm.c ****     RCM->CTRL_B.HSIEN = BIT_SET;
  32              		.loc 1 50 5 view .LVU1
  33              		.loc 1 50 23 is_stmt 0 view .LVU2
  34 0000 0D4B     		ldr	r3, .L2
  35 0002 1A68     		ldr	r2, [r3]
  36 0004 42F00102 		orr	r2, r2, #1
  37 0008 1A60     		str	r2, [r3]
  51:Library/APM32F10x_StdPeriphDriver/src/apm32f10x_rcm.c ****     /** Config HSI to system clock and Reset AHBPSC, APB1PSC, APB2PSC, ADCPSC and MCOSEL bits */
  52:Library/APM32F10x_StdPeriphDriver/src/apm32f10x_rcm.c ****     RCM->CFG &= (uint32_t)0xF8FF0000;
  38              		.loc 1 52 5 is_stmt 1 view .LVU3
  39              		.loc 1 52 14 is_stmt 0 view .LVU4
  40 000a 5968     		ldr	r1, [r3, #4]
  41 000c 0B4A     		ldr	r2, .L2+4
  42 000e 0A40     		ands	r2, r2, r1
  43 0010 5A60     		str	r2, [r3, #4]
  53:Library/APM32F10x_StdPeriphDriver/src/apm32f10x_rcm.c ****     /** Reset HSEEN, CSSEN and PLLEN bits */
  54:Library/APM32F10x_StdPeriphDriver/src/apm32f10x_rcm.c ****     RCM->CTRL &= (uint32_t)0xFEF6FFFF;
  44              		.loc 1 54 5 is_stmt 1 view .LVU5
  45              		.loc 1 54 15 is_stmt 0 view .LVU6
  46 0012 1A68     		ldr	r2, [r3]
  47 0014 22F08472 		bic	r2, r2, #17301504
  48 0018 22F48032 		bic	r2, r2, #65536
  49 001c 1A60     		str	r2, [r3]
  55:Library/APM32F10x_StdPeriphDriver/src/apm32f10x_rcm.c ****     /** Reset HSEBCFG bit */
  56:Library/APM32F10x_StdPeriphDriver/src/apm32f10x_rcm.c ****     RCM->CTRL_B.HSEBCFG = BIT_RESET;
  50              		.loc 1 56 5 is_stmt 1 view .LVU7
  51              		.loc 1 56 25 is_stmt 0 view .LVU8
  52 001e 1A68     		ldr	r2, [r3]
  53 0020 6FF39242 		bfc	r2, #18, #1
  54 0024 1A60     		str	r2, [r3]
  57:Library/APM32F10x_StdPeriphDriver/src/apm32f10x_rcm.c ****     /** Reset PLLSRCSEL, PLLHSEPSC, PLLMULCFG and USBDIV bits */
  58:Library/APM32F10x_StdPeriphDriver/src/apm32f10x_rcm.c ****     RCM->CFG &= (uint32_t)0xFF00FFFF;
  55              		.loc 1 58 5 is_stmt 1 view .LVU9
  56              		.loc 1 58 14 is_stmt 0 view .LVU10
  57 0026 5A68     		ldr	r2, [r3, #4]
ARM GAS  C:\Users\geehy\AppData\Local\Temp\ccYSLlwr.s 			page 3


  58 0028 22F47F02 		bic	r2, r2, #16711680
  59 002c 5A60     		str	r2, [r3, #4]
  59:Library/APM32F10x_StdPeriphDriver/src/apm32f10x_rcm.c ****     /** Disable all interrupts and clear pending bits */
  60:Library/APM32F10x_StdPeriphDriver/src/apm32f10x_rcm.c ****     RCM->INT = 0x009F0000;
  60              		.loc 1 60 5 is_stmt 1 view .LVU11
  61              		.loc 1 60 14 is_stmt 0 view .LVU12
  62 002e 4FF41F02 		mov	r2, #10420224
  63 0032 9A60     		str	r2, [r3, #8]
  61:Library/APM32F10x_StdPeriphDriver/src/apm32f10x_rcm.c **** }
  64              		.loc 1 61 1 view .LVU13
  65 0034 7047     		bx	lr
  66              	.L3:
  67 0036 00BF     		.align	2
  68              	.L2:
  69 0038 00100240 		.word	1073876992
  70 003c 0000FFF8 		.word	-117506048
  71              		.cfi_endproc
  72              	.LFE65:
  74              		.section	.text.RCM_ConfigHSE,"ax",%progbits
  75              		.align	1
  76              		.global	RCM_ConfigHSE
  77              		.syntax unified
  78              		.thumb
  79              		.thumb_func
  81              	RCM_ConfigHSE:
  82              	.LVL0:
  83              	.LFB66:
  62:Library/APM32F10x_StdPeriphDriver/src/apm32f10x_rcm.c **** 
  63:Library/APM32F10x_StdPeriphDriver/src/apm32f10x_rcm.c **** /*!
  64:Library/APM32F10x_StdPeriphDriver/src/apm32f10x_rcm.c ****  * @brief     Configs the HSE oscillator
  65:Library/APM32F10x_StdPeriphDriver/src/apm32f10x_rcm.c ****  *
  66:Library/APM32F10x_StdPeriphDriver/src/apm32f10x_rcm.c ****  * @param     state: state of the HSE
  67:Library/APM32F10x_StdPeriphDriver/src/apm32f10x_rcm.c ****  *                   This parameter can be one of the following values:
  68:Library/APM32F10x_StdPeriphDriver/src/apm32f10x_rcm.c ****  *                   @arg RCM_HSE_CLOSE:  Turn off the HSE oscillator
  69:Library/APM32F10x_StdPeriphDriver/src/apm32f10x_rcm.c ****  *                   @arg RCM_HSE_OPEN:   Turn on the HSE oscillator
  70:Library/APM32F10x_StdPeriphDriver/src/apm32f10x_rcm.c ****  *                   @arg RCM_HSE_BYPASS: HSE oscillator bypassed with external clock
  71:Library/APM32F10x_StdPeriphDriver/src/apm32f10x_rcm.c ****  *
  72:Library/APM32F10x_StdPeriphDriver/src/apm32f10x_rcm.c ****  * @retval    None
  73:Library/APM32F10x_StdPeriphDriver/src/apm32f10x_rcm.c ****  *
  74:Library/APM32F10x_StdPeriphDriver/src/apm32f10x_rcm.c ****  * @note      When HSE is not used directly or through the PLL as system clock, it can be stopped.
  75:Library/APM32F10x_StdPeriphDriver/src/apm32f10x_rcm.c ****  */
  76:Library/APM32F10x_StdPeriphDriver/src/apm32f10x_rcm.c **** void RCM_ConfigHSE(RCM_HSE_T state)
  77:Library/APM32F10x_StdPeriphDriver/src/apm32f10x_rcm.c **** {
  84              		.loc 1 77 1 is_stmt 1 view -0
  85              		.cfi_startproc
  86              		@ args = 0, pretend = 0, frame = 0
  87              		@ frame_needed = 0, uses_anonymous_args = 0
  88              		@ link register save eliminated.
  78:Library/APM32F10x_StdPeriphDriver/src/apm32f10x_rcm.c ****     /** Reset HSEEN bit */
  79:Library/APM32F10x_StdPeriphDriver/src/apm32f10x_rcm.c ****     RCM->CTRL_B.HSEEN = BIT_RESET;
  89              		.loc 1 79 5 view .LVU15
  90              		.loc 1 79 23 is_stmt 0 view .LVU16
  91 0000 0E4B     		ldr	r3, .L9
  92 0002 1A68     		ldr	r2, [r3]
  93 0004 6FF31042 		bfc	r2, #16, #1
  94 0008 1A60     		str	r2, [r3]
  80:Library/APM32F10x_StdPeriphDriver/src/apm32f10x_rcm.c **** 
ARM GAS  C:\Users\geehy\AppData\Local\Temp\ccYSLlwr.s 			page 4


  81:Library/APM32F10x_StdPeriphDriver/src/apm32f10x_rcm.c ****     /** Reset HSEBCFG bit */
  82:Library/APM32F10x_StdPeriphDriver/src/apm32f10x_rcm.c ****     RCM->CTRL_B.HSEBCFG = BIT_RESET;
  95              		.loc 1 82 5 is_stmt 1 view .LVU17
  96              		.loc 1 82 25 is_stmt 0 view .LVU18
  97 000a 1A68     		ldr	r2, [r3]
  98 000c 6FF39242 		bfc	r2, #18, #1
  99 0010 1A60     		str	r2, [r3]
  83:Library/APM32F10x_StdPeriphDriver/src/apm32f10x_rcm.c **** 
  84:Library/APM32F10x_StdPeriphDriver/src/apm32f10x_rcm.c ****     if (state == RCM_HSE_OPEN)
 100              		.loc 1 84 5 is_stmt 1 view .LVU19
 101              		.loc 1 84 8 is_stmt 0 view .LVU20
 102 0012 0128     		cmp	r0, #1
 103 0014 02D0     		beq	.L7
  85:Library/APM32F10x_StdPeriphDriver/src/apm32f10x_rcm.c ****     {
  86:Library/APM32F10x_StdPeriphDriver/src/apm32f10x_rcm.c ****         RCM->CTRL_B.HSEEN = BIT_SET;
  87:Library/APM32F10x_StdPeriphDriver/src/apm32f10x_rcm.c ****     }
  88:Library/APM32F10x_StdPeriphDriver/src/apm32f10x_rcm.c ****     else if (state == RCM_HSE_BYPASS)
 104              		.loc 1 88 10 is_stmt 1 view .LVU21
 105              		.loc 1 88 13 is_stmt 0 view .LVU22
 106 0016 0228     		cmp	r0, #2
 107 0018 06D0     		beq	.L8
 108              	.L4:
  89:Library/APM32F10x_StdPeriphDriver/src/apm32f10x_rcm.c ****     {
  90:Library/APM32F10x_StdPeriphDriver/src/apm32f10x_rcm.c ****         RCM->CTRL_B.HSEBCFG = BIT_SET;
  91:Library/APM32F10x_StdPeriphDriver/src/apm32f10x_rcm.c ****         RCM->CTRL_B.HSEEN = BIT_SET;
  92:Library/APM32F10x_StdPeriphDriver/src/apm32f10x_rcm.c ****     }
  93:Library/APM32F10x_StdPeriphDriver/src/apm32f10x_rcm.c **** }
 109              		.loc 1 93 1 view .LVU23
 110 001a 7047     		bx	lr
 111              	.L7:
  86:Library/APM32F10x_StdPeriphDriver/src/apm32f10x_rcm.c ****     }
 112              		.loc 1 86 9 is_stmt 1 view .LVU24
  86:Library/APM32F10x_StdPeriphDriver/src/apm32f10x_rcm.c ****     }
 113              		.loc 1 86 27 is_stmt 0 view .LVU25
 114 001c 1A46     		mov	r2, r3
 115 001e 1B68     		ldr	r3, [r3]
 116 0020 43F48033 		orr	r3, r3, #65536
 117 0024 1360     		str	r3, [r2]
 118 0026 7047     		bx	lr
 119              	.L8:
  90:Library/APM32F10x_StdPeriphDriver/src/apm32f10x_rcm.c ****         RCM->CTRL_B.HSEEN = BIT_SET;
 120              		.loc 1 90 9 is_stmt 1 view .LVU26
  90:Library/APM32F10x_StdPeriphDriver/src/apm32f10x_rcm.c ****         RCM->CTRL_B.HSEEN = BIT_SET;
 121              		.loc 1 90 29 is_stmt 0 view .LVU27
 122 0028 044B     		ldr	r3, .L9
 123 002a 1A68     		ldr	r2, [r3]
 124 002c 42F48022 		orr	r2, r2, #262144
 125 0030 1A60     		str	r2, [r3]
  91:Library/APM32F10x_StdPeriphDriver/src/apm32f10x_rcm.c ****     }
 126              		.loc 1 91 9 is_stmt 1 view .LVU28
  91:Library/APM32F10x_StdPeriphDriver/src/apm32f10x_rcm.c ****     }
 127              		.loc 1 91 27 is_stmt 0 view .LVU29
 128 0032 1A68     		ldr	r2, [r3]
 129 0034 42F48032 		orr	r2, r2, #65536
 130 0038 1A60     		str	r2, [r3]
 131              		.loc 1 93 1 view .LVU30
 132 003a EEE7     		b	.L4
ARM GAS  C:\Users\geehy\AppData\Local\Temp\ccYSLlwr.s 			page 5


 133              	.L10:
 134              		.align	2
 135              	.L9:
 136 003c 00100240 		.word	1073876992
 137              		.cfi_endproc
 138              	.LFE66:
 140              		.section	.text.RCM_WaitHSEReady,"ax",%progbits
 141              		.align	1
 142              		.global	RCM_WaitHSEReady
 143              		.syntax unified
 144              		.thumb
 145              		.thumb_func
 147              	RCM_WaitHSEReady:
 148              	.LFB67:
  94:Library/APM32F10x_StdPeriphDriver/src/apm32f10x_rcm.c **** 
  95:Library/APM32F10x_StdPeriphDriver/src/apm32f10x_rcm.c **** /*!
  96:Library/APM32F10x_StdPeriphDriver/src/apm32f10x_rcm.c ****  * @brief     Waits for HSE to be ready
  97:Library/APM32F10x_StdPeriphDriver/src/apm32f10x_rcm.c ****  *
  98:Library/APM32F10x_StdPeriphDriver/src/apm32f10x_rcm.c ****  * @param     None
  99:Library/APM32F10x_StdPeriphDriver/src/apm32f10x_rcm.c ****  *
 100:Library/APM32F10x_StdPeriphDriver/src/apm32f10x_rcm.c ****  * @retval    SUCCESS: HSE oscillator is ready
 101:Library/APM32F10x_StdPeriphDriver/src/apm32f10x_rcm.c ****  *            ERROR  : HSE oscillator is not ready
 102:Library/APM32F10x_StdPeriphDriver/src/apm32f10x_rcm.c ****  */
 103:Library/APM32F10x_StdPeriphDriver/src/apm32f10x_rcm.c **** uint8_t RCM_WaitHSEReady(void)
 104:Library/APM32F10x_StdPeriphDriver/src/apm32f10x_rcm.c **** {
 149              		.loc 1 104 1 is_stmt 1 view -0
 150              		.cfi_startproc
 151              		@ args = 0, pretend = 0, frame = 8
 152              		@ frame_needed = 0, uses_anonymous_args = 0
 153              		@ link register save eliminated.
 154 0000 82B0     		sub	sp, sp, #8
 155              	.LCFI0:
 156              		.cfi_def_cfa_offset 8
 105:Library/APM32F10x_StdPeriphDriver/src/apm32f10x_rcm.c ****     __IO uint32_t cnt;
 157              		.loc 1 105 5 view .LVU32
 106:Library/APM32F10x_StdPeriphDriver/src/apm32f10x_rcm.c **** 
 107:Library/APM32F10x_StdPeriphDriver/src/apm32f10x_rcm.c ****     for (cnt = 0; cnt < HSE_STARTUP_TIMEOUT; cnt++)
 158              		.loc 1 107 5 view .LVU33
 159              		.loc 1 107 14 is_stmt 0 view .LVU34
 160 0002 0023     		movs	r3, #0
 161 0004 0193     		str	r3, [sp, #4]
 162              		.loc 1 107 5 view .LVU35
 163 0006 02E0     		b	.L12
 164              	.L18:
 165              		.loc 1 107 46 is_stmt 1 discriminator 2 view .LVU36
 166              		.loc 1 107 49 is_stmt 0 discriminator 2 view .LVU37
 167 0008 019B     		ldr	r3, [sp, #4]
 168 000a 0133     		adds	r3, r3, #1
 169 000c 0193     		str	r3, [sp, #4]
 170              	.L12:
 171              		.loc 1 107 19 is_stmt 1 discriminator 1 view .LVU38
 172              		.loc 1 107 23 is_stmt 0 discriminator 1 view .LVU39
 173 000e 019B     		ldr	r3, [sp, #4]
 174              		.loc 1 107 5 discriminator 1 view .LVU40
 175 0010 B3F5A04F 		cmp	r3, #20480
 176 0014 06D2     		bcs	.L17
 108:Library/APM32F10x_StdPeriphDriver/src/apm32f10x_rcm.c ****     {
ARM GAS  C:\Users\geehy\AppData\Local\Temp\ccYSLlwr.s 			page 6


 109:Library/APM32F10x_StdPeriphDriver/src/apm32f10x_rcm.c ****         if (RCM->CTRL_B.HSERDYFLG == BIT_SET)
 177              		.loc 1 109 9 is_stmt 1 view .LVU41
 178              		.loc 1 109 24 is_stmt 0 view .LVU42
 179 0016 054B     		ldr	r3, .L19
 180 0018 1B68     		ldr	r3, [r3]
 181              		.loc 1 109 12 view .LVU43
 182 001a 13F4003F 		tst	r3, #131072
 183 001e F3D0     		beq	.L18
 110:Library/APM32F10x_StdPeriphDriver/src/apm32f10x_rcm.c ****         {
 111:Library/APM32F10x_StdPeriphDriver/src/apm32f10x_rcm.c ****             return SUCCESS;
 184              		.loc 1 111 20 view .LVU44
 185 0020 0120     		movs	r0, #1
 186 0022 00E0     		b	.L13
 187              	.L17:
 112:Library/APM32F10x_StdPeriphDriver/src/apm32f10x_rcm.c ****         }
 113:Library/APM32F10x_StdPeriphDriver/src/apm32f10x_rcm.c ****     }
 114:Library/APM32F10x_StdPeriphDriver/src/apm32f10x_rcm.c **** 
 115:Library/APM32F10x_StdPeriphDriver/src/apm32f10x_rcm.c ****     return ERROR;
 188              		.loc 1 115 12 view .LVU45
 189 0024 0020     		movs	r0, #0
 190              	.L13:
 116:Library/APM32F10x_StdPeriphDriver/src/apm32f10x_rcm.c **** }
 191              		.loc 1 116 1 view .LVU46
 192 0026 02B0     		add	sp, sp, #8
 193              	.LCFI1:
 194              		.cfi_def_cfa_offset 0
 195              		@ sp needed
 196 0028 7047     		bx	lr
 197              	.L20:
 198 002a 00BF     		.align	2
 199              	.L19:
 200 002c 00100240 		.word	1073876992
 201              		.cfi_endproc
 202              	.LFE67:
 204              		.section	.text.RCM_ConfigHSITrim,"ax",%progbits
 205              		.align	1
 206              		.global	RCM_ConfigHSITrim
 207              		.syntax unified
 208              		.thumb
 209              		.thumb_func
 211              	RCM_ConfigHSITrim:
 212              	.LVL1:
 213              	.LFB68:
 117:Library/APM32F10x_StdPeriphDriver/src/apm32f10x_rcm.c **** 
 118:Library/APM32F10x_StdPeriphDriver/src/apm32f10x_rcm.c **** /*!
 119:Library/APM32F10x_StdPeriphDriver/src/apm32f10x_rcm.c ****  * @brief     Config HSI trimming value
 120:Library/APM32F10x_StdPeriphDriver/src/apm32f10x_rcm.c ****  *
 121:Library/APM32F10x_StdPeriphDriver/src/apm32f10x_rcm.c ****  * @param     HSITrim: HSI trimming value
 122:Library/APM32F10x_StdPeriphDriver/src/apm32f10x_rcm.c ****  *                     This parameter must be a number between 0 and 0x1F.
 123:Library/APM32F10x_StdPeriphDriver/src/apm32f10x_rcm.c ****  *
 124:Library/APM32F10x_StdPeriphDriver/src/apm32f10x_rcm.c ****  * @retval    None
 125:Library/APM32F10x_StdPeriphDriver/src/apm32f10x_rcm.c ****  */
 126:Library/APM32F10x_StdPeriphDriver/src/apm32f10x_rcm.c **** void RCM_ConfigHSITrim(uint8_t HSITrim)
 127:Library/APM32F10x_StdPeriphDriver/src/apm32f10x_rcm.c **** {
 214              		.loc 1 127 1 is_stmt 1 view -0
 215              		.cfi_startproc
 216              		@ args = 0, pretend = 0, frame = 0
ARM GAS  C:\Users\geehy\AppData\Local\Temp\ccYSLlwr.s 			page 7


 217              		@ frame_needed = 0, uses_anonymous_args = 0
 218              		@ link register save eliminated.
 128:Library/APM32F10x_StdPeriphDriver/src/apm32f10x_rcm.c ****     RCM->CTRL_B.HSITRIM = HSITrim;
 219              		.loc 1 128 5 view .LVU48
 220              		.loc 1 128 25 is_stmt 0 view .LVU49
 221 0000 024B     		ldr	r3, .L22
 222 0002 1A68     		ldr	r2, [r3]
 223 0004 60F3C702 		bfi	r2, r0, #3, #5
 224 0008 1A60     		str	r2, [r3]
 129:Library/APM32F10x_StdPeriphDriver/src/apm32f10x_rcm.c **** }
 225              		.loc 1 129 1 view .LVU50
 226 000a 7047     		bx	lr
 227              	.L23:
 228              		.align	2
 229              	.L22:
 230 000c 00100240 		.word	1073876992
 231              		.cfi_endproc
 232              	.LFE68:
 234              		.section	.text.RCM_EnableHSI,"ax",%progbits
 235              		.align	1
 236              		.global	RCM_EnableHSI
 237              		.syntax unified
 238              		.thumb
 239              		.thumb_func
 241              	RCM_EnableHSI:
 242              	.LFB69:
 130:Library/APM32F10x_StdPeriphDriver/src/apm32f10x_rcm.c **** 
 131:Library/APM32F10x_StdPeriphDriver/src/apm32f10x_rcm.c **** /*!
 132:Library/APM32F10x_StdPeriphDriver/src/apm32f10x_rcm.c ****  * @brief     Enable the HSI
 133:Library/APM32F10x_StdPeriphDriver/src/apm32f10x_rcm.c ****  *
 134:Library/APM32F10x_StdPeriphDriver/src/apm32f10x_rcm.c ****  * @param     None
 135:Library/APM32F10x_StdPeriphDriver/src/apm32f10x_rcm.c ****  *
 136:Library/APM32F10x_StdPeriphDriver/src/apm32f10x_rcm.c ****  * @retval    None
 137:Library/APM32F10x_StdPeriphDriver/src/apm32f10x_rcm.c ****  */
 138:Library/APM32F10x_StdPeriphDriver/src/apm32f10x_rcm.c **** void RCM_EnableHSI(void)
 139:Library/APM32F10x_StdPeriphDriver/src/apm32f10x_rcm.c **** {
 243              		.loc 1 139 1 is_stmt 1 view -0
 244              		.cfi_startproc
 245              		@ args = 0, pretend = 0, frame = 0
 246              		@ frame_needed = 0, uses_anonymous_args = 0
 247              		@ link register save eliminated.
 140:Library/APM32F10x_StdPeriphDriver/src/apm32f10x_rcm.c ****     RCM->CTRL_B.HSIEN = BIT_SET;
 248              		.loc 1 140 5 view .LVU52
 249              		.loc 1 140 23 is_stmt 0 view .LVU53
 250 0000 024A     		ldr	r2, .L25
 251 0002 1368     		ldr	r3, [r2]
 252 0004 43F00103 		orr	r3, r3, #1
 253 0008 1360     		str	r3, [r2]
 141:Library/APM32F10x_StdPeriphDriver/src/apm32f10x_rcm.c **** }
 254              		.loc 1 141 1 view .LVU54
 255 000a 7047     		bx	lr
 256              	.L26:
 257              		.align	2
 258              	.L25:
 259 000c 00100240 		.word	1073876992
 260              		.cfi_endproc
 261              	.LFE69:
ARM GAS  C:\Users\geehy\AppData\Local\Temp\ccYSLlwr.s 			page 8


 263              		.section	.text.RCM_DisableHSI,"ax",%progbits
 264              		.align	1
 265              		.global	RCM_DisableHSI
 266              		.syntax unified
 267              		.thumb
 268              		.thumb_func
 270              	RCM_DisableHSI:
 271              	.LFB70:
 142:Library/APM32F10x_StdPeriphDriver/src/apm32f10x_rcm.c **** 
 143:Library/APM32F10x_StdPeriphDriver/src/apm32f10x_rcm.c **** /*!
 144:Library/APM32F10x_StdPeriphDriver/src/apm32f10x_rcm.c ****  * @brief     Disable the HSI
 145:Library/APM32F10x_StdPeriphDriver/src/apm32f10x_rcm.c ****  *
 146:Library/APM32F10x_StdPeriphDriver/src/apm32f10x_rcm.c ****  * @param     None
 147:Library/APM32F10x_StdPeriphDriver/src/apm32f10x_rcm.c ****  *
 148:Library/APM32F10x_StdPeriphDriver/src/apm32f10x_rcm.c ****  * @retval    None
 149:Library/APM32F10x_StdPeriphDriver/src/apm32f10x_rcm.c ****  *
 150:Library/APM32F10x_StdPeriphDriver/src/apm32f10x_rcm.c ****  * @note      When HSI is not used directly or through the PLL as system clock, it can be stopped.
 151:Library/APM32F10x_StdPeriphDriver/src/apm32f10x_rcm.c ****  */
 152:Library/APM32F10x_StdPeriphDriver/src/apm32f10x_rcm.c **** 
 153:Library/APM32F10x_StdPeriphDriver/src/apm32f10x_rcm.c **** void RCM_DisableHSI(void)
 154:Library/APM32F10x_StdPeriphDriver/src/apm32f10x_rcm.c **** {
 272              		.loc 1 154 1 is_stmt 1 view -0
 273              		.cfi_startproc
 274              		@ args = 0, pretend = 0, frame = 0
 275              		@ frame_needed = 0, uses_anonymous_args = 0
 276              		@ link register save eliminated.
 155:Library/APM32F10x_StdPeriphDriver/src/apm32f10x_rcm.c ****     RCM->CTRL_B.HSIEN = BIT_RESET;
 277              		.loc 1 155 5 view .LVU56
 278              		.loc 1 155 23 is_stmt 0 view .LVU57
 279 0000 024B     		ldr	r3, .L28
 280 0002 1A68     		ldr	r2, [r3]
 281 0004 6FF30002 		bfc	r2, #0, #1
 282 0008 1A60     		str	r2, [r3]
 156:Library/APM32F10x_StdPeriphDriver/src/apm32f10x_rcm.c **** }
 283              		.loc 1 156 1 view .LVU58
 284 000a 7047     		bx	lr
 285              	.L29:
 286              		.align	2
 287              	.L28:
 288 000c 00100240 		.word	1073876992
 289              		.cfi_endproc
 290              	.LFE70:
 292              		.section	.text.RCM_ConfigLSE,"ax",%progbits
 293              		.align	1
 294              		.global	RCM_ConfigLSE
 295              		.syntax unified
 296              		.thumb
 297              		.thumb_func
 299              	RCM_ConfigLSE:
 300              	.LVL2:
 301              	.LFB71:
 157:Library/APM32F10x_StdPeriphDriver/src/apm32f10x_rcm.c **** 
 158:Library/APM32F10x_StdPeriphDriver/src/apm32f10x_rcm.c **** /*!
 159:Library/APM32F10x_StdPeriphDriver/src/apm32f10x_rcm.c ****  * @brief     Configures the External Low Speed oscillator (LSE)
 160:Library/APM32F10x_StdPeriphDriver/src/apm32f10x_rcm.c ****  *
 161:Library/APM32F10x_StdPeriphDriver/src/apm32f10x_rcm.c ****  * @param     state : Specifies the new state of the LSE
 162:Library/APM32F10x_StdPeriphDriver/src/apm32f10x_rcm.c ****  *                    This parameter can be one of the following values:
ARM GAS  C:\Users\geehy\AppData\Local\Temp\ccYSLlwr.s 			page 9


 163:Library/APM32F10x_StdPeriphDriver/src/apm32f10x_rcm.c ****  *                    @arg RCM_LSE_CLOSE  : Close the LSE
 164:Library/APM32F10x_StdPeriphDriver/src/apm32f10x_rcm.c ****  *                    @arg RCM_LSE_OPEN   : Open the LSE
 165:Library/APM32F10x_StdPeriphDriver/src/apm32f10x_rcm.c ****  *                    @arg RCM_LSE_BYPASS : LSE bypass
 166:Library/APM32F10x_StdPeriphDriver/src/apm32f10x_rcm.c ****  *
 167:Library/APM32F10x_StdPeriphDriver/src/apm32f10x_rcm.c ****  * @retval    None
 168:Library/APM32F10x_StdPeriphDriver/src/apm32f10x_rcm.c ****  */
 169:Library/APM32F10x_StdPeriphDriver/src/apm32f10x_rcm.c **** void RCM_ConfigLSE(RCM_LSE_T state)
 170:Library/APM32F10x_StdPeriphDriver/src/apm32f10x_rcm.c **** {
 302              		.loc 1 170 1 is_stmt 1 view -0
 303              		.cfi_startproc
 304              		@ args = 0, pretend = 0, frame = 0
 305              		@ frame_needed = 0, uses_anonymous_args = 0
 306              		@ link register save eliminated.
 171:Library/APM32F10x_StdPeriphDriver/src/apm32f10x_rcm.c ****     RCM->BDCTRL_B.LSEEN = BIT_RESET;
 307              		.loc 1 171 5 view .LVU60
 308              		.loc 1 171 25 is_stmt 0 view .LVU61
 309 0000 0E4B     		ldr	r3, .L35
 310 0002 1A6A     		ldr	r2, [r3, #32]
 311 0004 6FF30002 		bfc	r2, #0, #1
 312 0008 1A62     		str	r2, [r3, #32]
 172:Library/APM32F10x_StdPeriphDriver/src/apm32f10x_rcm.c ****     RCM->BDCTRL_B.LSEBCFG = BIT_RESET;
 313              		.loc 1 172 5 is_stmt 1 view .LVU62
 314              		.loc 1 172 27 is_stmt 0 view .LVU63
 315 000a 1A6A     		ldr	r2, [r3, #32]
 316 000c 6FF38202 		bfc	r2, #2, #1
 317 0010 1A62     		str	r2, [r3, #32]
 173:Library/APM32F10x_StdPeriphDriver/src/apm32f10x_rcm.c **** 
 174:Library/APM32F10x_StdPeriphDriver/src/apm32f10x_rcm.c ****     if (state == RCM_LSE_OPEN)
 318              		.loc 1 174 5 is_stmt 1 view .LVU64
 319              		.loc 1 174 8 is_stmt 0 view .LVU65
 320 0012 0128     		cmp	r0, #1
 321 0014 02D0     		beq	.L33
 175:Library/APM32F10x_StdPeriphDriver/src/apm32f10x_rcm.c ****     {
 176:Library/APM32F10x_StdPeriphDriver/src/apm32f10x_rcm.c ****         RCM->BDCTRL_B.LSEEN = BIT_SET;
 177:Library/APM32F10x_StdPeriphDriver/src/apm32f10x_rcm.c ****     }
 178:Library/APM32F10x_StdPeriphDriver/src/apm32f10x_rcm.c ****     else if (state == RCM_LSE_BYPASS)
 322              		.loc 1 178 10 is_stmt 1 view .LVU66
 323              		.loc 1 178 13 is_stmt 0 view .LVU67
 324 0016 0228     		cmp	r0, #2
 325 0018 06D0     		beq	.L34
 326              	.L30:
 179:Library/APM32F10x_StdPeriphDriver/src/apm32f10x_rcm.c ****     {
 180:Library/APM32F10x_StdPeriphDriver/src/apm32f10x_rcm.c ****         RCM->BDCTRL_B.LSEBCFG = BIT_SET;
 181:Library/APM32F10x_StdPeriphDriver/src/apm32f10x_rcm.c ****         RCM->BDCTRL_B.LSEEN = BIT_SET;
 182:Library/APM32F10x_StdPeriphDriver/src/apm32f10x_rcm.c ****     }
 183:Library/APM32F10x_StdPeriphDriver/src/apm32f10x_rcm.c **** }
 327              		.loc 1 183 1 view .LVU68
 328 001a 7047     		bx	lr
 329              	.L33:
 176:Library/APM32F10x_StdPeriphDriver/src/apm32f10x_rcm.c ****     }
 330              		.loc 1 176 9 is_stmt 1 view .LVU69
 176:Library/APM32F10x_StdPeriphDriver/src/apm32f10x_rcm.c ****     }
 331              		.loc 1 176 29 is_stmt 0 view .LVU70
 332 001c 1A46     		mov	r2, r3
 333 001e 1B6A     		ldr	r3, [r3, #32]
 334 0020 43F00103 		orr	r3, r3, #1
 335 0024 1362     		str	r3, [r2, #32]
ARM GAS  C:\Users\geehy\AppData\Local\Temp\ccYSLlwr.s 			page 10


 336 0026 7047     		bx	lr
 337              	.L34:
 180:Library/APM32F10x_StdPeriphDriver/src/apm32f10x_rcm.c ****         RCM->BDCTRL_B.LSEEN = BIT_SET;
 338              		.loc 1 180 9 is_stmt 1 view .LVU71
 180:Library/APM32F10x_StdPeriphDriver/src/apm32f10x_rcm.c ****         RCM->BDCTRL_B.LSEEN = BIT_SET;
 339              		.loc 1 180 31 is_stmt 0 view .LVU72
 340 0028 044B     		ldr	r3, .L35
 341 002a 1A6A     		ldr	r2, [r3, #32]
 342 002c 42F00402 		orr	r2, r2, #4
 343 0030 1A62     		str	r2, [r3, #32]
 181:Library/APM32F10x_StdPeriphDriver/src/apm32f10x_rcm.c ****     }
 344              		.loc 1 181 9 is_stmt 1 view .LVU73
 181:Library/APM32F10x_StdPeriphDriver/src/apm32f10x_rcm.c ****     }
 345              		.loc 1 181 29 is_stmt 0 view .LVU74
 346 0032 1A6A     		ldr	r2, [r3, #32]
 347 0034 42F00102 		orr	r2, r2, #1
 348 0038 1A62     		str	r2, [r3, #32]
 349              		.loc 1 183 1 view .LVU75
 350 003a EEE7     		b	.L30
 351              	.L36:
 352              		.align	2
 353              	.L35:
 354 003c 00100240 		.word	1073876992
 355              		.cfi_endproc
 356              	.LFE71:
 358              		.section	.text.RCM_EnableLSI,"ax",%progbits
 359              		.align	1
 360              		.global	RCM_EnableLSI
 361              		.syntax unified
 362              		.thumb
 363              		.thumb_func
 365              	RCM_EnableLSI:
 366              	.LFB72:
 184:Library/APM32F10x_StdPeriphDriver/src/apm32f10x_rcm.c **** 
 185:Library/APM32F10x_StdPeriphDriver/src/apm32f10x_rcm.c **** /*!
 186:Library/APM32F10x_StdPeriphDriver/src/apm32f10x_rcm.c ****  * @brief     Enables the Internal Low Speed oscillator (LSI)
 187:Library/APM32F10x_StdPeriphDriver/src/apm32f10x_rcm.c ****  *
 188:Library/APM32F10x_StdPeriphDriver/src/apm32f10x_rcm.c ****  * @param     None
 189:Library/APM32F10x_StdPeriphDriver/src/apm32f10x_rcm.c ****  *
 190:Library/APM32F10x_StdPeriphDriver/src/apm32f10x_rcm.c ****  * @retval    None
 191:Library/APM32F10x_StdPeriphDriver/src/apm32f10x_rcm.c ****  */
 192:Library/APM32F10x_StdPeriphDriver/src/apm32f10x_rcm.c **** void RCM_EnableLSI(void)
 193:Library/APM32F10x_StdPeriphDriver/src/apm32f10x_rcm.c **** {
 367              		.loc 1 193 1 is_stmt 1 view -0
 368              		.cfi_startproc
 369              		@ args = 0, pretend = 0, frame = 0
 370              		@ frame_needed = 0, uses_anonymous_args = 0
 371              		@ link register save eliminated.
 194:Library/APM32F10x_StdPeriphDriver/src/apm32f10x_rcm.c ****     RCM->CSTS_B.LSIEN = BIT_SET;
 372              		.loc 1 194 5 view .LVU77
 373              		.loc 1 194 23 is_stmt 0 view .LVU78
 374 0000 024A     		ldr	r2, .L38
 375 0002 536A     		ldr	r3, [r2, #36]
 376 0004 43F00103 		orr	r3, r3, #1
 377 0008 5362     		str	r3, [r2, #36]
 195:Library/APM32F10x_StdPeriphDriver/src/apm32f10x_rcm.c **** }
 378              		.loc 1 195 1 view .LVU79
ARM GAS  C:\Users\geehy\AppData\Local\Temp\ccYSLlwr.s 			page 11


 379 000a 7047     		bx	lr
 380              	.L39:
 381              		.align	2
 382              	.L38:
 383 000c 00100240 		.word	1073876992
 384              		.cfi_endproc
 385              	.LFE72:
 387              		.section	.text.RCM_DisableLSI,"ax",%progbits
 388              		.align	1
 389              		.global	RCM_DisableLSI
 390              		.syntax unified
 391              		.thumb
 392              		.thumb_func
 394              	RCM_DisableLSI:
 395              	.LFB73:
 196:Library/APM32F10x_StdPeriphDriver/src/apm32f10x_rcm.c **** 
 197:Library/APM32F10x_StdPeriphDriver/src/apm32f10x_rcm.c **** /*!
 198:Library/APM32F10x_StdPeriphDriver/src/apm32f10x_rcm.c ****  * @brief     Disables the Internal Low Speed oscillator (LSI)
 199:Library/APM32F10x_StdPeriphDriver/src/apm32f10x_rcm.c ****  *
 200:Library/APM32F10x_StdPeriphDriver/src/apm32f10x_rcm.c ****  * @param     None
 201:Library/APM32F10x_StdPeriphDriver/src/apm32f10x_rcm.c ****  *
 202:Library/APM32F10x_StdPeriphDriver/src/apm32f10x_rcm.c ****  * @retval    None
 203:Library/APM32F10x_StdPeriphDriver/src/apm32f10x_rcm.c ****  */
 204:Library/APM32F10x_StdPeriphDriver/src/apm32f10x_rcm.c **** void RCM_DisableLSI(void)
 205:Library/APM32F10x_StdPeriphDriver/src/apm32f10x_rcm.c **** {
 396              		.loc 1 205 1 is_stmt 1 view -0
 397              		.cfi_startproc
 398              		@ args = 0, pretend = 0, frame = 0
 399              		@ frame_needed = 0, uses_anonymous_args = 0
 400              		@ link register save eliminated.
 206:Library/APM32F10x_StdPeriphDriver/src/apm32f10x_rcm.c ****     RCM->CSTS_B.LSIEN = BIT_RESET;
 401              		.loc 1 206 5 view .LVU81
 402              		.loc 1 206 23 is_stmt 0 view .LVU82
 403 0000 024B     		ldr	r3, .L41
 404 0002 5A6A     		ldr	r2, [r3, #36]
 405 0004 6FF30002 		bfc	r2, #0, #1
 406 0008 5A62     		str	r2, [r3, #36]
 207:Library/APM32F10x_StdPeriphDriver/src/apm32f10x_rcm.c **** }
 407              		.loc 1 207 1 view .LVU83
 408 000a 7047     		bx	lr
 409              	.L42:
 410              		.align	2
 411              	.L41:
 412 000c 00100240 		.word	1073876992
 413              		.cfi_endproc
 414              	.LFE73:
 416              		.section	.text.RCM_ConfigPLL,"ax",%progbits
 417              		.align	1
 418              		.global	RCM_ConfigPLL
 419              		.syntax unified
 420              		.thumb
 421              		.thumb_func
 423              	RCM_ConfigPLL:
 424              	.LVL3:
 425              	.LFB74:
 208:Library/APM32F10x_StdPeriphDriver/src/apm32f10x_rcm.c **** 
 209:Library/APM32F10x_StdPeriphDriver/src/apm32f10x_rcm.c **** /*!
ARM GAS  C:\Users\geehy\AppData\Local\Temp\ccYSLlwr.s 			page 12


 210:Library/APM32F10x_StdPeriphDriver/src/apm32f10x_rcm.c ****  * @brief     Configs the PLL clock source and multiplication factor
 211:Library/APM32F10x_StdPeriphDriver/src/apm32f10x_rcm.c ****  *
 212:Library/APM32F10x_StdPeriphDriver/src/apm32f10x_rcm.c ****  * @param     pllSelect:   PLL entry clock source select
 213:Library/APM32F10x_StdPeriphDriver/src/apm32f10x_rcm.c ****  *                         This parameter can be one of the following values:
 214:Library/APM32F10x_StdPeriphDriver/src/apm32f10x_rcm.c ****  *                         @arg RCM_PLLSEL_HSI_DIV_2: HSI clock divided by 2 selected as PLL clock 
 215:Library/APM32F10x_StdPeriphDriver/src/apm32f10x_rcm.c ****  *                         @arg RCM_PLLSEL_HSE:       HSE clock selected as PLL clock source
 216:Library/APM32F10x_StdPeriphDriver/src/apm32f10x_rcm.c ****  *                         @arg RCM_PLLSEL_HSE_DIV2:  HSE clock divided by 2 selected as PLL clock 
 217:Library/APM32F10x_StdPeriphDriver/src/apm32f10x_rcm.c ****  *
 218:Library/APM32F10x_StdPeriphDriver/src/apm32f10x_rcm.c ****  * @param     pllMf:       PLL multiplication factor
 219:Library/APM32F10x_StdPeriphDriver/src/apm32f10x_rcm.c ****  *                         This parameter can be RCM_PLLMF_x where x can be a value from 2 to 16.
 220:Library/APM32F10x_StdPeriphDriver/src/apm32f10x_rcm.c ****  *
 221:Library/APM32F10x_StdPeriphDriver/src/apm32f10x_rcm.c ****  * @retval    None
 222:Library/APM32F10x_StdPeriphDriver/src/apm32f10x_rcm.c ****  *
 223:Library/APM32F10x_StdPeriphDriver/src/apm32f10x_rcm.c ****  * @note      PLL should be disabled while use this function.
 224:Library/APM32F10x_StdPeriphDriver/src/apm32f10x_rcm.c ****  */
 225:Library/APM32F10x_StdPeriphDriver/src/apm32f10x_rcm.c **** void RCM_ConfigPLL(RCM_PLLSEL_T pllSelect, RCM_PLLMF_T pllMf)
 226:Library/APM32F10x_StdPeriphDriver/src/apm32f10x_rcm.c **** {
 426              		.loc 1 226 1 is_stmt 1 view -0
 427              		.cfi_startproc
 428              		@ args = 0, pretend = 0, frame = 0
 429              		@ frame_needed = 0, uses_anonymous_args = 0
 430              		@ link register save eliminated.
 227:Library/APM32F10x_StdPeriphDriver/src/apm32f10x_rcm.c ****     RCM->CFG_B.PLLMULCFG = pllMf;
 431              		.loc 1 227 5 view .LVU85
 432              		.loc 1 227 26 is_stmt 0 view .LVU86
 433 0000 074B     		ldr	r3, .L44
 434 0002 5A68     		ldr	r2, [r3, #4]
 435 0004 61F39542 		bfi	r2, r1, #18, #4
 436 0008 5A60     		str	r2, [r3, #4]
 228:Library/APM32F10x_StdPeriphDriver/src/apm32f10x_rcm.c ****     RCM->CFG_B.PLLSRCSEL = pllSelect & 0x01;
 437              		.loc 1 228 5 is_stmt 1 view .LVU87
 438              		.loc 1 228 26 is_stmt 0 view .LVU88
 439 000a 5A68     		ldr	r2, [r3, #4]
 440 000c 60F31042 		bfi	r2, r0, #16, #1
 441 0010 5A60     		str	r2, [r3, #4]
 229:Library/APM32F10x_StdPeriphDriver/src/apm32f10x_rcm.c ****     RCM->CFG_B.PLLHSEPSC = (pllSelect >> 1) & 0x01;
 442              		.loc 1 229 5 is_stmt 1 view .LVU89
 443              		.loc 1 229 45 is_stmt 0 view .LVU90
 444 0012 C0F34000 		ubfx	r0, r0, #1, #1
 445              	.LVL4:
 446              		.loc 1 229 26 view .LVU91
 447 0016 5A68     		ldr	r2, [r3, #4]
 448 0018 60F35142 		bfi	r2, r0, #17, #1
 449 001c 5A60     		str	r2, [r3, #4]
 230:Library/APM32F10x_StdPeriphDriver/src/apm32f10x_rcm.c **** }
 450              		.loc 1 230 1 view .LVU92
 451 001e 7047     		bx	lr
 452              	.L45:
 453              		.align	2
 454              	.L44:
 455 0020 00100240 		.word	1073876992
 456              		.cfi_endproc
 457              	.LFE74:
 459              		.section	.text.RCM_EnablePLL,"ax",%progbits
 460              		.align	1
 461              		.global	RCM_EnablePLL
 462              		.syntax unified
ARM GAS  C:\Users\geehy\AppData\Local\Temp\ccYSLlwr.s 			page 13


 463              		.thumb
 464              		.thumb_func
 466              	RCM_EnablePLL:
 467              	.LFB75:
 231:Library/APM32F10x_StdPeriphDriver/src/apm32f10x_rcm.c **** 
 232:Library/APM32F10x_StdPeriphDriver/src/apm32f10x_rcm.c **** /*!
 233:Library/APM32F10x_StdPeriphDriver/src/apm32f10x_rcm.c ****  * @brief      Enables the PLL
 234:Library/APM32F10x_StdPeriphDriver/src/apm32f10x_rcm.c ****  *
 235:Library/APM32F10x_StdPeriphDriver/src/apm32f10x_rcm.c ****  * @param      None
 236:Library/APM32F10x_StdPeriphDriver/src/apm32f10x_rcm.c ****  *
 237:Library/APM32F10x_StdPeriphDriver/src/apm32f10x_rcm.c ****  * @retval     None
 238:Library/APM32F10x_StdPeriphDriver/src/apm32f10x_rcm.c ****  */
 239:Library/APM32F10x_StdPeriphDriver/src/apm32f10x_rcm.c **** void RCM_EnablePLL(void)
 240:Library/APM32F10x_StdPeriphDriver/src/apm32f10x_rcm.c **** {
 468              		.loc 1 240 1 is_stmt 1 view -0
 469              		.cfi_startproc
 470              		@ args = 0, pretend = 0, frame = 0
 471              		@ frame_needed = 0, uses_anonymous_args = 0
 472              		@ link register save eliminated.
 241:Library/APM32F10x_StdPeriphDriver/src/apm32f10x_rcm.c ****     RCM->CTRL_B.PLLEN = BIT_SET;
 473              		.loc 1 241 5 view .LVU94
 474              		.loc 1 241 23 is_stmt 0 view .LVU95
 475 0000 024A     		ldr	r2, .L47
 476 0002 1368     		ldr	r3, [r2]
 477 0004 43F08073 		orr	r3, r3, #16777216
 478 0008 1360     		str	r3, [r2]
 242:Library/APM32F10x_StdPeriphDriver/src/apm32f10x_rcm.c **** }
 479              		.loc 1 242 1 view .LVU96
 480 000a 7047     		bx	lr
 481              	.L48:
 482              		.align	2
 483              	.L47:
 484 000c 00100240 		.word	1073876992
 485              		.cfi_endproc
 486              	.LFE75:
 488              		.section	.text.RCM_DisablePLL,"ax",%progbits
 489              		.align	1
 490              		.global	RCM_DisablePLL
 491              		.syntax unified
 492              		.thumb
 493              		.thumb_func
 495              	RCM_DisablePLL:
 496              	.LFB76:
 243:Library/APM32F10x_StdPeriphDriver/src/apm32f10x_rcm.c **** 
 244:Library/APM32F10x_StdPeriphDriver/src/apm32f10x_rcm.c **** /*!
 245:Library/APM32F10x_StdPeriphDriver/src/apm32f10x_rcm.c **** * @brief      Disable the PLL
 246:Library/APM32F10x_StdPeriphDriver/src/apm32f10x_rcm.c **** *
 247:Library/APM32F10x_StdPeriphDriver/src/apm32f10x_rcm.c **** * @param      None
 248:Library/APM32F10x_StdPeriphDriver/src/apm32f10x_rcm.c **** *
 249:Library/APM32F10x_StdPeriphDriver/src/apm32f10x_rcm.c **** * @retval     None
 250:Library/APM32F10x_StdPeriphDriver/src/apm32f10x_rcm.c **** *
 251:Library/APM32F10x_StdPeriphDriver/src/apm32f10x_rcm.c **** * @note       When PLL is not used as system clock, it can be stopped.
 252:Library/APM32F10x_StdPeriphDriver/src/apm32f10x_rcm.c **** */
 253:Library/APM32F10x_StdPeriphDriver/src/apm32f10x_rcm.c **** void RCM_DisablePLL(void)
 254:Library/APM32F10x_StdPeriphDriver/src/apm32f10x_rcm.c **** {
 497              		.loc 1 254 1 is_stmt 1 view -0
 498              		.cfi_startproc
ARM GAS  C:\Users\geehy\AppData\Local\Temp\ccYSLlwr.s 			page 14


 499              		@ args = 0, pretend = 0, frame = 0
 500              		@ frame_needed = 0, uses_anonymous_args = 0
 501              		@ link register save eliminated.
 255:Library/APM32F10x_StdPeriphDriver/src/apm32f10x_rcm.c ****     RCM->CTRL_B.PLLEN = BIT_RESET;
 502              		.loc 1 255 5 view .LVU98
 503              		.loc 1 255 23 is_stmt 0 view .LVU99
 504 0000 024B     		ldr	r3, .L50
 505 0002 1A68     		ldr	r2, [r3]
 506 0004 6FF31862 		bfc	r2, #24, #1
 507 0008 1A60     		str	r2, [r3]
 256:Library/APM32F10x_StdPeriphDriver/src/apm32f10x_rcm.c **** }
 508              		.loc 1 256 1 view .LVU100
 509 000a 7047     		bx	lr
 510              	.L51:
 511              		.align	2
 512              	.L50:
 513 000c 00100240 		.word	1073876992
 514              		.cfi_endproc
 515              	.LFE76:
 517              		.section	.text.RCM_EnableCSS,"ax",%progbits
 518              		.align	1
 519              		.global	RCM_EnableCSS
 520              		.syntax unified
 521              		.thumb
 522              		.thumb_func
 524              	RCM_EnableCSS:
 525              	.LFB77:
 257:Library/APM32F10x_StdPeriphDriver/src/apm32f10x_rcm.c **** 
 258:Library/APM32F10x_StdPeriphDriver/src/apm32f10x_rcm.c **** /*!
 259:Library/APM32F10x_StdPeriphDriver/src/apm32f10x_rcm.c ****  * @brief     Enable the Clock Security System
 260:Library/APM32F10x_StdPeriphDriver/src/apm32f10x_rcm.c ****  *
 261:Library/APM32F10x_StdPeriphDriver/src/apm32f10x_rcm.c ****  * @param     None
 262:Library/APM32F10x_StdPeriphDriver/src/apm32f10x_rcm.c ****  *
 263:Library/APM32F10x_StdPeriphDriver/src/apm32f10x_rcm.c ****  * @retval    None
 264:Library/APM32F10x_StdPeriphDriver/src/apm32f10x_rcm.c ****  */
 265:Library/APM32F10x_StdPeriphDriver/src/apm32f10x_rcm.c **** void RCM_EnableCSS(void)
 266:Library/APM32F10x_StdPeriphDriver/src/apm32f10x_rcm.c **** {
 526              		.loc 1 266 1 is_stmt 1 view -0
 527              		.cfi_startproc
 528              		@ args = 0, pretend = 0, frame = 0
 529              		@ frame_needed = 0, uses_anonymous_args = 0
 530              		@ link register save eliminated.
 267:Library/APM32F10x_StdPeriphDriver/src/apm32f10x_rcm.c ****     RCM->CTRL_B.CSSEN = BIT_SET;
 531              		.loc 1 267 5 view .LVU102
 532              		.loc 1 267 23 is_stmt 0 view .LVU103
 533 0000 024A     		ldr	r2, .L53
 534 0002 1368     		ldr	r3, [r2]
 535 0004 43F40023 		orr	r3, r3, #524288
 536 0008 1360     		str	r3, [r2]
 268:Library/APM32F10x_StdPeriphDriver/src/apm32f10x_rcm.c **** }
 537              		.loc 1 268 1 view .LVU104
 538 000a 7047     		bx	lr
 539              	.L54:
 540              		.align	2
 541              	.L53:
 542 000c 00100240 		.word	1073876992
 543              		.cfi_endproc
ARM GAS  C:\Users\geehy\AppData\Local\Temp\ccYSLlwr.s 			page 15


 544              	.LFE77:
 546              		.section	.text.RCM_DisableCSS,"ax",%progbits
 547              		.align	1
 548              		.global	RCM_DisableCSS
 549              		.syntax unified
 550              		.thumb
 551              		.thumb_func
 553              	RCM_DisableCSS:
 554              	.LFB78:
 269:Library/APM32F10x_StdPeriphDriver/src/apm32f10x_rcm.c **** 
 270:Library/APM32F10x_StdPeriphDriver/src/apm32f10x_rcm.c **** /*!
 271:Library/APM32F10x_StdPeriphDriver/src/apm32f10x_rcm.c ****  * @brief     Disable the Clock Security System
 272:Library/APM32F10x_StdPeriphDriver/src/apm32f10x_rcm.c ****  *
 273:Library/APM32F10x_StdPeriphDriver/src/apm32f10x_rcm.c ****  * @param     None
 274:Library/APM32F10x_StdPeriphDriver/src/apm32f10x_rcm.c ****  *
 275:Library/APM32F10x_StdPeriphDriver/src/apm32f10x_rcm.c ****  * @retval    None
 276:Library/APM32F10x_StdPeriphDriver/src/apm32f10x_rcm.c ****  */
 277:Library/APM32F10x_StdPeriphDriver/src/apm32f10x_rcm.c **** void RCM_DisableCSS(void)
 278:Library/APM32F10x_StdPeriphDriver/src/apm32f10x_rcm.c **** {
 555              		.loc 1 278 1 is_stmt 1 view -0
 556              		.cfi_startproc
 557              		@ args = 0, pretend = 0, frame = 0
 558              		@ frame_needed = 0, uses_anonymous_args = 0
 559              		@ link register save eliminated.
 279:Library/APM32F10x_StdPeriphDriver/src/apm32f10x_rcm.c ****     RCM->CTRL_B.CSSEN = BIT_RESET;
 560              		.loc 1 279 5 view .LVU106
 561              		.loc 1 279 23 is_stmt 0 view .LVU107
 562 0000 024B     		ldr	r3, .L56
 563 0002 1A68     		ldr	r2, [r3]
 564 0004 6FF3D342 		bfc	r2, #19, #1
 565 0008 1A60     		str	r2, [r3]
 280:Library/APM32F10x_StdPeriphDriver/src/apm32f10x_rcm.c **** }
 566              		.loc 1 280 1 view .LVU108
 567 000a 7047     		bx	lr
 568              	.L57:
 569              		.align	2
 570              	.L56:
 571 000c 00100240 		.word	1073876992
 572              		.cfi_endproc
 573              	.LFE78:
 575              		.section	.text.RCM_ConfigMCO,"ax",%progbits
 576              		.align	1
 577              		.global	RCM_ConfigMCO
 578              		.syntax unified
 579              		.thumb
 580              		.thumb_func
 582              	RCM_ConfigMCO:
 583              	.LVL5:
 584              	.LFB79:
 281:Library/APM32F10x_StdPeriphDriver/src/apm32f10x_rcm.c **** 
 282:Library/APM32F10x_StdPeriphDriver/src/apm32f10x_rcm.c **** /*!
 283:Library/APM32F10x_StdPeriphDriver/src/apm32f10x_rcm.c ****  * @brief     Selects the MCO pin clock ouput source
 284:Library/APM32F10x_StdPeriphDriver/src/apm32f10x_rcm.c ****  *
 285:Library/APM32F10x_StdPeriphDriver/src/apm32f10x_rcm.c ****  * @param     mcoClock: specifies the clock source to output
 286:Library/APM32F10x_StdPeriphDriver/src/apm32f10x_rcm.c ****  *                      This parameter can be one of the following values:
 287:Library/APM32F10x_StdPeriphDriver/src/apm32f10x_rcm.c ****  *                      @arg RCM_MCOCLK_NO_CLOCK     : No clock selected.
 288:Library/APM32F10x_StdPeriphDriver/src/apm32f10x_rcm.c ****  *                      @arg RCM_MCOCLK_SYSCLK       : System clock selected.
ARM GAS  C:\Users\geehy\AppData\Local\Temp\ccYSLlwr.s 			page 16


 289:Library/APM32F10x_StdPeriphDriver/src/apm32f10x_rcm.c ****  *                      @arg RCM_MCOCLK_HSI          : HSI oscillator clock selected.
 290:Library/APM32F10x_StdPeriphDriver/src/apm32f10x_rcm.c ****  *                      @arg RCM_MCOCLK_HSE          : HSE oscillator clock selected.
 291:Library/APM32F10x_StdPeriphDriver/src/apm32f10x_rcm.c ****  *                      @arg RCM_MCOCLK_PLLCLK_DIV_2 : PLL clock divided by 2 selected.
 292:Library/APM32F10x_StdPeriphDriver/src/apm32f10x_rcm.c ****  *
 293:Library/APM32F10x_StdPeriphDriver/src/apm32f10x_rcm.c ****  * @retval    None
 294:Library/APM32F10x_StdPeriphDriver/src/apm32f10x_rcm.c ****  */
 295:Library/APM32F10x_StdPeriphDriver/src/apm32f10x_rcm.c **** void RCM_ConfigMCO(RCM_MCOCLK_T mcoClock)
 296:Library/APM32F10x_StdPeriphDriver/src/apm32f10x_rcm.c **** {
 585              		.loc 1 296 1 is_stmt 1 view -0
 586              		.cfi_startproc
 587              		@ args = 0, pretend = 0, frame = 0
 588              		@ frame_needed = 0, uses_anonymous_args = 0
 589              		@ link register save eliminated.
 297:Library/APM32F10x_StdPeriphDriver/src/apm32f10x_rcm.c ****     RCM->CFG_B.MCOSEL = mcoClock;
 590              		.loc 1 297 5 view .LVU110
 591              		.loc 1 297 23 is_stmt 0 view .LVU111
 592 0000 024B     		ldr	r3, .L59
 593 0002 5A68     		ldr	r2, [r3, #4]
 594 0004 60F31A62 		bfi	r2, r0, #24, #3
 595 0008 5A60     		str	r2, [r3, #4]
 298:Library/APM32F10x_StdPeriphDriver/src/apm32f10x_rcm.c **** }
 596              		.loc 1 298 1 view .LVU112
 597 000a 7047     		bx	lr
 598              	.L60:
 599              		.align	2
 600              	.L59:
 601 000c 00100240 		.word	1073876992
 602              		.cfi_endproc
 603              	.LFE79:
 605              		.section	.text.RCM_ConfigSYSCLK,"ax",%progbits
 606              		.align	1
 607              		.global	RCM_ConfigSYSCLK
 608              		.syntax unified
 609              		.thumb
 610              		.thumb_func
 612              	RCM_ConfigSYSCLK:
 613              	.LVL6:
 614              	.LFB80:
 299:Library/APM32F10x_StdPeriphDriver/src/apm32f10x_rcm.c **** 
 300:Library/APM32F10x_StdPeriphDriver/src/apm32f10x_rcm.c **** /*!
 301:Library/APM32F10x_StdPeriphDriver/src/apm32f10x_rcm.c ****  * @brief    Configures the system clock source
 302:Library/APM32F10x_StdPeriphDriver/src/apm32f10x_rcm.c ****  *
 303:Library/APM32F10x_StdPeriphDriver/src/apm32f10x_rcm.c ****  * @param    sysClkSelect: specifies the clock source used as system clock
 304:Library/APM32F10x_StdPeriphDriver/src/apm32f10x_rcm.c ****  *                         This parameter can be one of the following values:
 305:Library/APM32F10x_StdPeriphDriver/src/apm32f10x_rcm.c ****  *                         @arg RCM_SYSCLK_SEL_HSI: HSI is selected as system clock source
 306:Library/APM32F10x_StdPeriphDriver/src/apm32f10x_rcm.c ****  *                         @arg RCM_SYSCLK_SEL_HSE: HSE is selected as system clock source
 307:Library/APM32F10x_StdPeriphDriver/src/apm32f10x_rcm.c ****  *                         @arg RCM_SYSCLK_SEL_PLL: PLL is selected as system clock source
 308:Library/APM32F10x_StdPeriphDriver/src/apm32f10x_rcm.c ****  *
 309:Library/APM32F10x_StdPeriphDriver/src/apm32f10x_rcm.c ****  * @retva    None
 310:Library/APM32F10x_StdPeriphDriver/src/apm32f10x_rcm.c ****  */
 311:Library/APM32F10x_StdPeriphDriver/src/apm32f10x_rcm.c **** void RCM_ConfigSYSCLK(RCM_SYSCLK_SEL_T sysClkSelect)
 312:Library/APM32F10x_StdPeriphDriver/src/apm32f10x_rcm.c **** {
 615              		.loc 1 312 1 is_stmt 1 view -0
 616              		.cfi_startproc
 617              		@ args = 0, pretend = 0, frame = 0
 618              		@ frame_needed = 0, uses_anonymous_args = 0
 619              		@ link register save eliminated.
ARM GAS  C:\Users\geehy\AppData\Local\Temp\ccYSLlwr.s 			page 17


 313:Library/APM32F10x_StdPeriphDriver/src/apm32f10x_rcm.c ****     RCM->CFG_B.SCLKSEL = sysClkSelect;
 620              		.loc 1 313 5 view .LVU114
 621              		.loc 1 313 24 is_stmt 0 view .LVU115
 622 0000 024B     		ldr	r3, .L62
 623 0002 5A68     		ldr	r2, [r3, #4]
 624 0004 60F30102 		bfi	r2, r0, #0, #2
 625 0008 5A60     		str	r2, [r3, #4]
 314:Library/APM32F10x_StdPeriphDriver/src/apm32f10x_rcm.c **** }
 626              		.loc 1 314 1 view .LVU116
 627 000a 7047     		bx	lr
 628              	.L63:
 629              		.align	2
 630              	.L62:
 631 000c 00100240 		.word	1073876992
 632              		.cfi_endproc
 633              	.LFE80:
 635              		.section	.text.RCM_ReadSYSCLKSource,"ax",%progbits
 636              		.align	1
 637              		.global	RCM_ReadSYSCLKSource
 638              		.syntax unified
 639              		.thumb
 640              		.thumb_func
 642              	RCM_ReadSYSCLKSource:
 643              	.LFB81:
 315:Library/APM32F10x_StdPeriphDriver/src/apm32f10x_rcm.c **** 
 316:Library/APM32F10x_StdPeriphDriver/src/apm32f10x_rcm.c **** /*!
 317:Library/APM32F10x_StdPeriphDriver/src/apm32f10x_rcm.c ****  * @brief     Returns the clock source which is used as system clock
 318:Library/APM32F10x_StdPeriphDriver/src/apm32f10x_rcm.c ****  *
 319:Library/APM32F10x_StdPeriphDriver/src/apm32f10x_rcm.c ****  * @param     None
 320:Library/APM32F10x_StdPeriphDriver/src/apm32f10x_rcm.c ****  *
 321:Library/APM32F10x_StdPeriphDriver/src/apm32f10x_rcm.c ****  * @retval    The clock source used as system clock
 322:Library/APM32F10x_StdPeriphDriver/src/apm32f10x_rcm.c ****  */
 323:Library/APM32F10x_StdPeriphDriver/src/apm32f10x_rcm.c **** RCM_SYSCLK_SEL_T RCM_ReadSYSCLKSource(void)
 324:Library/APM32F10x_StdPeriphDriver/src/apm32f10x_rcm.c **** {
 644              		.loc 1 324 1 is_stmt 1 view -0
 645              		.cfi_startproc
 646              		@ args = 0, pretend = 0, frame = 0
 647              		@ frame_needed = 0, uses_anonymous_args = 0
 648              		@ link register save eliminated.
 325:Library/APM32F10x_StdPeriphDriver/src/apm32f10x_rcm.c ****     return (RCM_SYSCLK_SEL_T)RCM->CFG_B.SCLKSELSTS;
 649              		.loc 1 325 5 view .LVU118
 650              		.loc 1 325 40 is_stmt 0 view .LVU119
 651 0000 024B     		ldr	r3, .L65
 652 0002 5868     		ldr	r0, [r3, #4]
 326:Library/APM32F10x_StdPeriphDriver/src/apm32f10x_rcm.c **** }
 653              		.loc 1 326 1 view .LVU120
 654 0004 C0F38100 		ubfx	r0, r0, #2, #2
 655 0008 7047     		bx	lr
 656              	.L66:
 657 000a 00BF     		.align	2
 658              	.L65:
 659 000c 00100240 		.word	1073876992
 660              		.cfi_endproc
 661              	.LFE81:
 663              		.section	.text.RCM_ConfigAHB,"ax",%progbits
 664              		.align	1
 665              		.global	RCM_ConfigAHB
ARM GAS  C:\Users\geehy\AppData\Local\Temp\ccYSLlwr.s 			page 18


 666              		.syntax unified
 667              		.thumb
 668              		.thumb_func
 670              	RCM_ConfigAHB:
 671              	.LVL7:
 672              	.LFB82:
 327:Library/APM32F10x_StdPeriphDriver/src/apm32f10x_rcm.c **** 
 328:Library/APM32F10x_StdPeriphDriver/src/apm32f10x_rcm.c **** /*!
 329:Library/APM32F10x_StdPeriphDriver/src/apm32f10x_rcm.c ****  * @brief     Configs the AHB clock prescaler.
 330:Library/APM32F10x_StdPeriphDriver/src/apm32f10x_rcm.c ****  *
 331:Library/APM32F10x_StdPeriphDriver/src/apm32f10x_rcm.c ****  * @param     AHBDiv : Specifies the AHB clock prescaler from the system clock.
 332:Library/APM32F10x_StdPeriphDriver/src/apm32f10x_rcm.c ****  *                     This parameter can be one of the following values:
 333:Library/APM32F10x_StdPeriphDriver/src/apm32f10x_rcm.c ****  *                     @arg RCM_AHB_DIV_1   : HCLK = SYSCLK
 334:Library/APM32F10x_StdPeriphDriver/src/apm32f10x_rcm.c ****  *                     @arg RCM_AHB_DIV_2   : HCLK = SYSCLK / 2
 335:Library/APM32F10x_StdPeriphDriver/src/apm32f10x_rcm.c ****  *                     @arg RCM_AHB_DIV_4   : HCLK = SYSCLK / 4
 336:Library/APM32F10x_StdPeriphDriver/src/apm32f10x_rcm.c ****  *                     @arg RCM_AHB_DIV_8   : HCLK = SYSCLK / 8
 337:Library/APM32F10x_StdPeriphDriver/src/apm32f10x_rcm.c ****  *                     @arg RCM_AHB_DIV_16  : HCLK = SYSCLK / 16
 338:Library/APM32F10x_StdPeriphDriver/src/apm32f10x_rcm.c ****  *                     @arg RCM_AHB_DIV_64  : HCLK = SYSCLK / 64
 339:Library/APM32F10x_StdPeriphDriver/src/apm32f10x_rcm.c ****  *                     @arg RCM_AHB_DIV_128 : HCLK = SYSCLK / 128
 340:Library/APM32F10x_StdPeriphDriver/src/apm32f10x_rcm.c ****  *                     @arg RCM_AHB_DIV_256 : HCLK = SYSCLK / 256
 341:Library/APM32F10x_StdPeriphDriver/src/apm32f10x_rcm.c ****  *                     @arg RCM_AHB_DIV_512 : HCLK = SYSCLK / 512
 342:Library/APM32F10x_StdPeriphDriver/src/apm32f10x_rcm.c ****  *
 343:Library/APM32F10x_StdPeriphDriver/src/apm32f10x_rcm.c ****  * @retval    None
 344:Library/APM32F10x_StdPeriphDriver/src/apm32f10x_rcm.c ****  */
 345:Library/APM32F10x_StdPeriphDriver/src/apm32f10x_rcm.c **** void RCM_ConfigAHB(RCM_AHB_DIV_T AHBDiv)
 346:Library/APM32F10x_StdPeriphDriver/src/apm32f10x_rcm.c **** {
 673              		.loc 1 346 1 is_stmt 1 view -0
 674              		.cfi_startproc
 675              		@ args = 0, pretend = 0, frame = 0
 676              		@ frame_needed = 0, uses_anonymous_args = 0
 677              		@ link register save eliminated.
 347:Library/APM32F10x_StdPeriphDriver/src/apm32f10x_rcm.c ****     RCM->CFG_B.AHBPSC = AHBDiv;
 678              		.loc 1 347 5 view .LVU122
 679              		.loc 1 347 23 is_stmt 0 view .LVU123
 680 0000 024B     		ldr	r3, .L68
 681 0002 5A68     		ldr	r2, [r3, #4]
 682 0004 60F30712 		bfi	r2, r0, #4, #4
 683 0008 5A60     		str	r2, [r3, #4]
 348:Library/APM32F10x_StdPeriphDriver/src/apm32f10x_rcm.c **** }
 684              		.loc 1 348 1 view .LVU124
 685 000a 7047     		bx	lr
 686              	.L69:
 687              		.align	2
 688              	.L68:
 689 000c 00100240 		.word	1073876992
 690              		.cfi_endproc
 691              	.LFE82:
 693              		.section	.text.RCM_ConfigAPB1,"ax",%progbits
 694              		.align	1
 695              		.global	RCM_ConfigAPB1
 696              		.syntax unified
 697              		.thumb
 698              		.thumb_func
 700              	RCM_ConfigAPB1:
 701              	.LVL8:
 702              	.LFB83:
 349:Library/APM32F10x_StdPeriphDriver/src/apm32f10x_rcm.c **** 
ARM GAS  C:\Users\geehy\AppData\Local\Temp\ccYSLlwr.s 			page 19


 350:Library/APM32F10x_StdPeriphDriver/src/apm32f10x_rcm.c **** /*!
 351:Library/APM32F10x_StdPeriphDriver/src/apm32f10x_rcm.c ****  * @brief     Configs the APB1 clock prescaler.
 352:Library/APM32F10x_StdPeriphDriver/src/apm32f10x_rcm.c ****  *
 353:Library/APM32F10x_StdPeriphDriver/src/apm32f10x_rcm.c ****  * @param     APB1Div: Specifies the APB1 clock prescaler from the AHB clock.
 354:Library/APM32F10x_StdPeriphDriver/src/apm32f10x_rcm.c ****  *                     This parameter can be one of the following values:
 355:Library/APM32F10x_StdPeriphDriver/src/apm32f10x_rcm.c ****  *                     @arg RCM_APB_DIV_1  : PCLK1 = HCLK
 356:Library/APM32F10x_StdPeriphDriver/src/apm32f10x_rcm.c ****  *                     @arg RCM_APB_DIV_2  : PCLK1 = HCLK / 2
 357:Library/APM32F10x_StdPeriphDriver/src/apm32f10x_rcm.c ****  *                     @arg RCM_APB_DIV_4  : PCLK1 = HCLK / 4
 358:Library/APM32F10x_StdPeriphDriver/src/apm32f10x_rcm.c ****  *                     @arg RCM_APB_DIV_8  : PCLK1 = HCLK / 8
 359:Library/APM32F10x_StdPeriphDriver/src/apm32f10x_rcm.c ****  *                     @arg RCM_APB_DIV_16 : PCLK1 = HCLK / 16
 360:Library/APM32F10x_StdPeriphDriver/src/apm32f10x_rcm.c ****  *
 361:Library/APM32F10x_StdPeriphDriver/src/apm32f10x_rcm.c ****  * @retval    None
 362:Library/APM32F10x_StdPeriphDriver/src/apm32f10x_rcm.c ****  */
 363:Library/APM32F10x_StdPeriphDriver/src/apm32f10x_rcm.c **** void RCM_ConfigAPB1(RCM_APB_DIV_T APB1Div)
 364:Library/APM32F10x_StdPeriphDriver/src/apm32f10x_rcm.c **** {
 703              		.loc 1 364 1 is_stmt 1 view -0
 704              		.cfi_startproc
 705              		@ args = 0, pretend = 0, frame = 0
 706              		@ frame_needed = 0, uses_anonymous_args = 0
 707              		@ link register save eliminated.
 365:Library/APM32F10x_StdPeriphDriver/src/apm32f10x_rcm.c ****     RCM->CFG_B.APB1PSC = APB1Div;
 708              		.loc 1 365 5 view .LVU126
 709              		.loc 1 365 24 is_stmt 0 view .LVU127
 710 0000 024B     		ldr	r3, .L71
 711 0002 5A68     		ldr	r2, [r3, #4]
 712 0004 60F30A22 		bfi	r2, r0, #8, #3
 713 0008 5A60     		str	r2, [r3, #4]
 366:Library/APM32F10x_StdPeriphDriver/src/apm32f10x_rcm.c **** }
 714              		.loc 1 366 1 view .LVU128
 715 000a 7047     		bx	lr
 716              	.L72:
 717              		.align	2
 718              	.L71:
 719 000c 00100240 		.word	1073876992
 720              		.cfi_endproc
 721              	.LFE83:
 723              		.section	.text.RCM_ConfigAPB2,"ax",%progbits
 724              		.align	1
 725              		.global	RCM_ConfigAPB2
 726              		.syntax unified
 727              		.thumb
 728              		.thumb_func
 730              	RCM_ConfigAPB2:
 731              	.LVL9:
 732              	.LFB84:
 367:Library/APM32F10x_StdPeriphDriver/src/apm32f10x_rcm.c **** 
 368:Library/APM32F10x_StdPeriphDriver/src/apm32f10x_rcm.c **** /*!
 369:Library/APM32F10x_StdPeriphDriver/src/apm32f10x_rcm.c ****  * @brief     Configs the APB2 clock prescaler
 370:Library/APM32F10x_StdPeriphDriver/src/apm32f10x_rcm.c ****  *
 371:Library/APM32F10x_StdPeriphDriver/src/apm32f10x_rcm.c ****  * @param     APB2Div: Specifies the APB2 clock prescaler from the AHB clock.
 372:Library/APM32F10x_StdPeriphDriver/src/apm32f10x_rcm.c ****  *                     This parameter can be one of the following values:
 373:Library/APM32F10x_StdPeriphDriver/src/apm32f10x_rcm.c ****  *                     @arg RCM_APB_DIV_1  : PCLK2 = HCLK
 374:Library/APM32F10x_StdPeriphDriver/src/apm32f10x_rcm.c ****  *                     @arg RCM_APB_DIV_2  : PCLK2 = HCLK / 2
 375:Library/APM32F10x_StdPeriphDriver/src/apm32f10x_rcm.c ****  *                     @arg RCM_APB_DIV_4  : PCLK2 = HCLK / 4
 376:Library/APM32F10x_StdPeriphDriver/src/apm32f10x_rcm.c ****  *                     @arg RCM_APB_DIV_8  : PCLK2 = HCLK / 8
 377:Library/APM32F10x_StdPeriphDriver/src/apm32f10x_rcm.c ****  *                     @arg RCM_APB_DIV_16 : PCLK2 = HCLK / 16
 378:Library/APM32F10x_StdPeriphDriver/src/apm32f10x_rcm.c ****  *
ARM GAS  C:\Users\geehy\AppData\Local\Temp\ccYSLlwr.s 			page 20


 379:Library/APM32F10x_StdPeriphDriver/src/apm32f10x_rcm.c ****  * @retval    None
 380:Library/APM32F10x_StdPeriphDriver/src/apm32f10x_rcm.c ****  */
 381:Library/APM32F10x_StdPeriphDriver/src/apm32f10x_rcm.c **** void RCM_ConfigAPB2(RCM_APB_DIV_T APB2Div)
 382:Library/APM32F10x_StdPeriphDriver/src/apm32f10x_rcm.c **** {
 733              		.loc 1 382 1 is_stmt 1 view -0
 734              		.cfi_startproc
 735              		@ args = 0, pretend = 0, frame = 0
 736              		@ frame_needed = 0, uses_anonymous_args = 0
 737              		@ link register save eliminated.
 383:Library/APM32F10x_StdPeriphDriver/src/apm32f10x_rcm.c ****     RCM->CFG_B.APB2PSC = APB2Div;
 738              		.loc 1 383 5 view .LVU130
 739              		.loc 1 383 24 is_stmt 0 view .LVU131
 740 0000 024B     		ldr	r3, .L74
 741 0002 5A68     		ldr	r2, [r3, #4]
 742 0004 60F3CD22 		bfi	r2, r0, #11, #3
 743 0008 5A60     		str	r2, [r3, #4]
 384:Library/APM32F10x_StdPeriphDriver/src/apm32f10x_rcm.c **** }
 744              		.loc 1 384 1 view .LVU132
 745 000a 7047     		bx	lr
 746              	.L75:
 747              		.align	2
 748              	.L74:
 749 000c 00100240 		.word	1073876992
 750              		.cfi_endproc
 751              	.LFE84:
 753              		.section	.text.RCM_ConfigUSBCLK,"ax",%progbits
 754              		.align	1
 755              		.global	RCM_ConfigUSBCLK
 756              		.syntax unified
 757              		.thumb
 758              		.thumb_func
 760              	RCM_ConfigUSBCLK:
 761              	.LVL10:
 762              	.LFB85:
 385:Library/APM32F10x_StdPeriphDriver/src/apm32f10x_rcm.c **** 
 386:Library/APM32F10x_StdPeriphDriver/src/apm32f10x_rcm.c **** /*!
 387:Library/APM32F10x_StdPeriphDriver/src/apm32f10x_rcm.c ****  * @brief     Configs the USB clock prescaler
 388:Library/APM32F10x_StdPeriphDriver/src/apm32f10x_rcm.c ****  *
 389:Library/APM32F10x_StdPeriphDriver/src/apm32f10x_rcm.c ****  * @param     USBDiv: Specifies the USB clock prescaler from the PLL clock.
 390:Library/APM32F10x_StdPeriphDriver/src/apm32f10x_rcm.c ****  *                     This parameter can be one of the following values:
 391:Library/APM32F10x_StdPeriphDriver/src/apm32f10x_rcm.c ****  *                     @arg RCM_USB_DIV_1_5 : USBCLK = PLL clock /1.5
 392:Library/APM32F10x_StdPeriphDriver/src/apm32f10x_rcm.c ****  *                     @arg RCM_USB_DIV_1   : USBCLK = PLL clock
 393:Library/APM32F10x_StdPeriphDriver/src/apm32f10x_rcm.c ****  *                     @arg RCM_USB_DIV_2   : USBCLK = PLL clock / 2
 394:Library/APM32F10x_StdPeriphDriver/src/apm32f10x_rcm.c ****  *                     @arg RCM_USB_DIV_2_5 : USBCLK = PLL clock / 2.5 (Only for High-density devic
 395:Library/APM32F10x_StdPeriphDriver/src/apm32f10x_rcm.c ****  *
 396:Library/APM32F10x_StdPeriphDriver/src/apm32f10x_rcm.c ****  * @retval    None
 397:Library/APM32F10x_StdPeriphDriver/src/apm32f10x_rcm.c ****  */
 398:Library/APM32F10x_StdPeriphDriver/src/apm32f10x_rcm.c **** void RCM_ConfigUSBCLK(RCM_USB_DIV_T USBDiv)
 399:Library/APM32F10x_StdPeriphDriver/src/apm32f10x_rcm.c **** {
 763              		.loc 1 399 1 is_stmt 1 view -0
 764              		.cfi_startproc
 765              		@ args = 0, pretend = 0, frame = 0
 766              		@ frame_needed = 0, uses_anonymous_args = 0
 767              		@ link register save eliminated.
 400:Library/APM32F10x_StdPeriphDriver/src/apm32f10x_rcm.c ****     RCM->CFG_B.USBDPSC = USBDiv;
 768              		.loc 1 400 5 view .LVU134
 769              		.loc 1 400 24 is_stmt 0 view .LVU135
ARM GAS  C:\Users\geehy\AppData\Local\Temp\ccYSLlwr.s 			page 21


 770 0000 024B     		ldr	r3, .L77
 771 0002 5A68     		ldr	r2, [r3, #4]
 772 0004 60F39752 		bfi	r2, r0, #22, #2
 773 0008 5A60     		str	r2, [r3, #4]
 401:Library/APM32F10x_StdPeriphDriver/src/apm32f10x_rcm.c **** }
 774              		.loc 1 401 1 view .LVU136
 775 000a 7047     		bx	lr
 776              	.L78:
 777              		.align	2
 778              	.L77:
 779 000c 00100240 		.word	1073876992
 780              		.cfi_endproc
 781              	.LFE85:
 783              		.section	.text.RCM_ConfigFPUCLK,"ax",%progbits
 784              		.align	1
 785              		.global	RCM_ConfigFPUCLK
 786              		.syntax unified
 787              		.thumb
 788              		.thumb_func
 790              	RCM_ConfigFPUCLK:
 791              	.LVL11:
 792              	.LFB86:
 402:Library/APM32F10x_StdPeriphDriver/src/apm32f10x_rcm.c **** 
 403:Library/APM32F10x_StdPeriphDriver/src/apm32f10x_rcm.c **** /*!
 404:Library/APM32F10x_StdPeriphDriver/src/apm32f10x_rcm.c ****  * @brief     Configs the FPU clock prescaler
 405:Library/APM32F10x_StdPeriphDriver/src/apm32f10x_rcm.c ****  *
 406:Library/APM32F10x_StdPeriphDriver/src/apm32f10x_rcm.c ****  * @param     FPUDiv: Specifies the FPU clock prescaler from the AHB clock.
 407:Library/APM32F10x_StdPeriphDriver/src/apm32f10x_rcm.c ****  *                     This parameter can be one of the following values:
 408:Library/APM32F10x_StdPeriphDriver/src/apm32f10x_rcm.c ****  *                     @arg RCM_FPU_DIV_1 : FPUCLK = HCLK
 409:Library/APM32F10x_StdPeriphDriver/src/apm32f10x_rcm.c ****  *                     @arg RCM_FPU_DIV_2 : FPUCLK = HCLK /2
 410:Library/APM32F10x_StdPeriphDriver/src/apm32f10x_rcm.c ****  *
 411:Library/APM32F10x_StdPeriphDriver/src/apm32f10x_rcm.c ****  * @retval    None
 412:Library/APM32F10x_StdPeriphDriver/src/apm32f10x_rcm.c ****  */
 413:Library/APM32F10x_StdPeriphDriver/src/apm32f10x_rcm.c **** void RCM_ConfigFPUCLK(RCM_FPU_DIV_T FPUDiv)
 414:Library/APM32F10x_StdPeriphDriver/src/apm32f10x_rcm.c **** {
 793              		.loc 1 414 1 is_stmt 1 view -0
 794              		.cfi_startproc
 795              		@ args = 0, pretend = 0, frame = 0
 796              		@ frame_needed = 0, uses_anonymous_args = 0
 797              		@ link register save eliminated.
 415:Library/APM32F10x_StdPeriphDriver/src/apm32f10x_rcm.c ****     RCM->CFG_B.FPUPSC = FPUDiv;
 798              		.loc 1 415 5 view .LVU138
 799              		.loc 1 415 23 is_stmt 0 view .LVU139
 800 0000 024B     		ldr	r3, .L80
 801 0002 5A68     		ldr	r2, [r3, #4]
 802 0004 60F3DB62 		bfi	r2, r0, #27, #1
 803 0008 5A60     		str	r2, [r3, #4]
 416:Library/APM32F10x_StdPeriphDriver/src/apm32f10x_rcm.c **** }
 804              		.loc 1 416 1 view .LVU140
 805 000a 7047     		bx	lr
 806              	.L81:
 807              		.align	2
 808              	.L80:
 809 000c 00100240 		.word	1073876992
 810              		.cfi_endproc
 811              	.LFE86:
 813              		.section	.text.RCM_ConfigADCCLK,"ax",%progbits
ARM GAS  C:\Users\geehy\AppData\Local\Temp\ccYSLlwr.s 			page 22


 814              		.align	1
 815              		.global	RCM_ConfigADCCLK
 816              		.syntax unified
 817              		.thumb
 818              		.thumb_func
 820              	RCM_ConfigADCCLK:
 821              	.LVL12:
 822              	.LFB87:
 417:Library/APM32F10x_StdPeriphDriver/src/apm32f10x_rcm.c **** 
 418:Library/APM32F10x_StdPeriphDriver/src/apm32f10x_rcm.c **** /*!
 419:Library/APM32F10x_StdPeriphDriver/src/apm32f10x_rcm.c ****  * @brief     Configs the ADC clock prescaler
 420:Library/APM32F10x_StdPeriphDriver/src/apm32f10x_rcm.c ****  *
 421:Library/APM32F10x_StdPeriphDriver/src/apm32f10x_rcm.c ****  * @param     ADCDiv : Specifies the ADC clock prescaler from the APB2 clock.
 422:Library/APM32F10x_StdPeriphDriver/src/apm32f10x_rcm.c ****  *                     This parameter can be one of the following values:
 423:Library/APM32F10x_StdPeriphDriver/src/apm32f10x_rcm.c ****  *                     @arg RCM_PCLK2_DIV_2: ADCCLK = PCLK2 / 2
 424:Library/APM32F10x_StdPeriphDriver/src/apm32f10x_rcm.c ****  *                     @arg RCM_PCLK2_DIV_4: ADCCLK = PCLK2 / 4
 425:Library/APM32F10x_StdPeriphDriver/src/apm32f10x_rcm.c ****  *                     @arg RCM_PCLK2_DIV_6: ADCCLK = PCLK2 / 6
 426:Library/APM32F10x_StdPeriphDriver/src/apm32f10x_rcm.c ****  *                     @arg RCM_PCLK2_DIV_8: ADCCLK = PCLK2 / 8
 427:Library/APM32F10x_StdPeriphDriver/src/apm32f10x_rcm.c ****  *
 428:Library/APM32F10x_StdPeriphDriver/src/apm32f10x_rcm.c ****  * @retval    None
 429:Library/APM32F10x_StdPeriphDriver/src/apm32f10x_rcm.c ****  */
 430:Library/APM32F10x_StdPeriphDriver/src/apm32f10x_rcm.c **** void RCM_ConfigADCCLK(RCM_PCLK2_DIV_T ADCDiv)
 431:Library/APM32F10x_StdPeriphDriver/src/apm32f10x_rcm.c **** {
 823              		.loc 1 431 1 is_stmt 1 view -0
 824              		.cfi_startproc
 825              		@ args = 0, pretend = 0, frame = 0
 826              		@ frame_needed = 0, uses_anonymous_args = 0
 827              		@ link register save eliminated.
 432:Library/APM32F10x_StdPeriphDriver/src/apm32f10x_rcm.c ****     RCM->CFG_B.ADCPSC = ADCDiv;
 828              		.loc 1 432 5 view .LVU142
 829              		.loc 1 432 23 is_stmt 0 view .LVU143
 830 0000 024B     		ldr	r3, .L83
 831 0002 5A68     		ldr	r2, [r3, #4]
 832 0004 60F38F32 		bfi	r2, r0, #14, #2
 833 0008 5A60     		str	r2, [r3, #4]
 433:Library/APM32F10x_StdPeriphDriver/src/apm32f10x_rcm.c **** }
 834              		.loc 1 433 1 view .LVU144
 835 000a 7047     		bx	lr
 836              	.L84:
 837              		.align	2
 838              	.L83:
 839 000c 00100240 		.word	1073876992
 840              		.cfi_endproc
 841              	.LFE87:
 843              		.section	.text.RCM_ConfigRTCCLK,"ax",%progbits
 844              		.align	1
 845              		.global	RCM_ConfigRTCCLK
 846              		.syntax unified
 847              		.thumb
 848              		.thumb_func
 850              	RCM_ConfigRTCCLK:
 851              	.LVL13:
 852              	.LFB88:
 434:Library/APM32F10x_StdPeriphDriver/src/apm32f10x_rcm.c **** 
 435:Library/APM32F10x_StdPeriphDriver/src/apm32f10x_rcm.c **** /*!
 436:Library/APM32F10x_StdPeriphDriver/src/apm32f10x_rcm.c ****  * @brief     Configures the RTC clock source
 437:Library/APM32F10x_StdPeriphDriver/src/apm32f10x_rcm.c ****  *
ARM GAS  C:\Users\geehy\AppData\Local\Temp\ccYSLlwr.s 			page 23


 438:Library/APM32F10x_StdPeriphDriver/src/apm32f10x_rcm.c ****  * @param     rtcClkSelect : specifies the RTC clock source.
 439:Library/APM32F10x_StdPeriphDriver/src/apm32f10x_rcm.c ****  *                           This parameter can be one of the following values:
 440:Library/APM32F10x_StdPeriphDriver/src/apm32f10x_rcm.c ****  *                           @arg RCM_RTCCLK_LSE        : RTCCLK = LSE clock
 441:Library/APM32F10x_StdPeriphDriver/src/apm32f10x_rcm.c ****  *                           @arg RCM_RTCCLK_LSI        : RTCCLK = LSI clock
 442:Library/APM32F10x_StdPeriphDriver/src/apm32f10x_rcm.c ****  *                           @arg RCM_RTCCLK_HSE_DIV_128: RTCCLK = HSE clock / 128
 443:Library/APM32F10x_StdPeriphDriver/src/apm32f10x_rcm.c ****  *
 444:Library/APM32F10x_StdPeriphDriver/src/apm32f10x_rcm.c ****  * @retval    None
 445:Library/APM32F10x_StdPeriphDriver/src/apm32f10x_rcm.c ****  *
 446:Library/APM32F10x_StdPeriphDriver/src/apm32f10x_rcm.c ****  * @note      Once the RTC clock is configed it can't be changed unless reset the Backup domain.
 447:Library/APM32F10x_StdPeriphDriver/src/apm32f10x_rcm.c ****  */
 448:Library/APM32F10x_StdPeriphDriver/src/apm32f10x_rcm.c **** void RCM_ConfigRTCCLK(RCM_RTCCLK_T rtcClkSelect)
 449:Library/APM32F10x_StdPeriphDriver/src/apm32f10x_rcm.c **** {
 853              		.loc 1 449 1 is_stmt 1 view -0
 854              		.cfi_startproc
 855              		@ args = 0, pretend = 0, frame = 0
 856              		@ frame_needed = 0, uses_anonymous_args = 0
 857              		@ link register save eliminated.
 450:Library/APM32F10x_StdPeriphDriver/src/apm32f10x_rcm.c ****     RCM->BDCTRL_B.RTCSRCSEL = rtcClkSelect;
 858              		.loc 1 450 5 view .LVU146
 859              		.loc 1 450 29 is_stmt 0 view .LVU147
 860 0000 024B     		ldr	r3, .L86
 861 0002 1A6A     		ldr	r2, [r3, #32]
 862 0004 60F30922 		bfi	r2, r0, #8, #2
 863 0008 1A62     		str	r2, [r3, #32]
 451:Library/APM32F10x_StdPeriphDriver/src/apm32f10x_rcm.c **** }
 864              		.loc 1 451 1 view .LVU148
 865 000a 7047     		bx	lr
 866              	.L87:
 867              		.align	2
 868              	.L86:
 869 000c 00100240 		.word	1073876992
 870              		.cfi_endproc
 871              	.LFE88:
 873              		.section	.text.RCM_EnableRTCCLK,"ax",%progbits
 874              		.align	1
 875              		.global	RCM_EnableRTCCLK
 876              		.syntax unified
 877              		.thumb
 878              		.thumb_func
 880              	RCM_EnableRTCCLK:
 881              	.LFB89:
 452:Library/APM32F10x_StdPeriphDriver/src/apm32f10x_rcm.c **** 
 453:Library/APM32F10x_StdPeriphDriver/src/apm32f10x_rcm.c **** /*!
 454:Library/APM32F10x_StdPeriphDriver/src/apm32f10x_rcm.c ****  * @brief     Enables the RTC clock
 455:Library/APM32F10x_StdPeriphDriver/src/apm32f10x_rcm.c ****  *
 456:Library/APM32F10x_StdPeriphDriver/src/apm32f10x_rcm.c ****  * @param     None
 457:Library/APM32F10x_StdPeriphDriver/src/apm32f10x_rcm.c ****  *
 458:Library/APM32F10x_StdPeriphDriver/src/apm32f10x_rcm.c ****  * @retval    None
 459:Library/APM32F10x_StdPeriphDriver/src/apm32f10x_rcm.c ****  */
 460:Library/APM32F10x_StdPeriphDriver/src/apm32f10x_rcm.c **** void RCM_EnableRTCCLK(void)
 461:Library/APM32F10x_StdPeriphDriver/src/apm32f10x_rcm.c **** {
 882              		.loc 1 461 1 is_stmt 1 view -0
 883              		.cfi_startproc
 884              		@ args = 0, pretend = 0, frame = 0
 885              		@ frame_needed = 0, uses_anonymous_args = 0
 886              		@ link register save eliminated.
 462:Library/APM32F10x_StdPeriphDriver/src/apm32f10x_rcm.c ****     RCM->BDCTRL_B.RTCCLKEN = BIT_SET;
ARM GAS  C:\Users\geehy\AppData\Local\Temp\ccYSLlwr.s 			page 24


 887              		.loc 1 462 5 view .LVU150
 888              		.loc 1 462 28 is_stmt 0 view .LVU151
 889 0000 024A     		ldr	r2, .L89
 890 0002 136A     		ldr	r3, [r2, #32]
 891 0004 43F40043 		orr	r3, r3, #32768
 892 0008 1362     		str	r3, [r2, #32]
 463:Library/APM32F10x_StdPeriphDriver/src/apm32f10x_rcm.c **** }
 893              		.loc 1 463 1 view .LVU152
 894 000a 7047     		bx	lr
 895              	.L90:
 896              		.align	2
 897              	.L89:
 898 000c 00100240 		.word	1073876992
 899              		.cfi_endproc
 900              	.LFE89:
 902              		.section	.text.RCM_DisableRTCCLK,"ax",%progbits
 903              		.align	1
 904              		.global	RCM_DisableRTCCLK
 905              		.syntax unified
 906              		.thumb
 907              		.thumb_func
 909              	RCM_DisableRTCCLK:
 910              	.LFB90:
 464:Library/APM32F10x_StdPeriphDriver/src/apm32f10x_rcm.c **** 
 465:Library/APM32F10x_StdPeriphDriver/src/apm32f10x_rcm.c **** /*!
 466:Library/APM32F10x_StdPeriphDriver/src/apm32f10x_rcm.c ****  * @brief     Disables the RTC clock
 467:Library/APM32F10x_StdPeriphDriver/src/apm32f10x_rcm.c ****  *
 468:Library/APM32F10x_StdPeriphDriver/src/apm32f10x_rcm.c ****  * @param     None
 469:Library/APM32F10x_StdPeriphDriver/src/apm32f10x_rcm.c ****  *
 470:Library/APM32F10x_StdPeriphDriver/src/apm32f10x_rcm.c ****  * @retval    None
 471:Library/APM32F10x_StdPeriphDriver/src/apm32f10x_rcm.c ****  */
 472:Library/APM32F10x_StdPeriphDriver/src/apm32f10x_rcm.c **** void RCM_DisableRTCCLK(void)
 473:Library/APM32F10x_StdPeriphDriver/src/apm32f10x_rcm.c **** {
 911              		.loc 1 473 1 is_stmt 1 view -0
 912              		.cfi_startproc
 913              		@ args = 0, pretend = 0, frame = 0
 914              		@ frame_needed = 0, uses_anonymous_args = 0
 915              		@ link register save eliminated.
 474:Library/APM32F10x_StdPeriphDriver/src/apm32f10x_rcm.c ****     RCM->BDCTRL_B.RTCCLKEN = BIT_RESET;
 916              		.loc 1 474 5 view .LVU154
 917              		.loc 1 474 28 is_stmt 0 view .LVU155
 918 0000 024B     		ldr	r3, .L92
 919 0002 1A6A     		ldr	r2, [r3, #32]
 920 0004 6FF3CF32 		bfc	r2, #15, #1
 921 0008 1A62     		str	r2, [r3, #32]
 475:Library/APM32F10x_StdPeriphDriver/src/apm32f10x_rcm.c **** }
 922              		.loc 1 475 1 view .LVU156
 923 000a 7047     		bx	lr
 924              	.L93:
 925              		.align	2
 926              	.L92:
 927 000c 00100240 		.word	1073876992
 928              		.cfi_endproc
 929              	.LFE90:
 931              		.section	.text.RCM_ReadSYSCLKFreq,"ax",%progbits
 932              		.align	1
 933              		.global	RCM_ReadSYSCLKFreq
ARM GAS  C:\Users\geehy\AppData\Local\Temp\ccYSLlwr.s 			page 25


 934              		.syntax unified
 935              		.thumb
 936              		.thumb_func
 938              	RCM_ReadSYSCLKFreq:
 939              	.LFB91:
 476:Library/APM32F10x_StdPeriphDriver/src/apm32f10x_rcm.c **** 
 477:Library/APM32F10x_StdPeriphDriver/src/apm32f10x_rcm.c **** /*!
 478:Library/APM32F10x_StdPeriphDriver/src/apm32f10x_rcm.c ****  * @brief     Reads the frequency of SYSCLK
 479:Library/APM32F10x_StdPeriphDriver/src/apm32f10x_rcm.c ****  *
 480:Library/APM32F10x_StdPeriphDriver/src/apm32f10x_rcm.c ****  * @param     None
 481:Library/APM32F10x_StdPeriphDriver/src/apm32f10x_rcm.c ****  *
 482:Library/APM32F10x_StdPeriphDriver/src/apm32f10x_rcm.c ****  * @retval    Return the frequency of SYSCLK
 483:Library/APM32F10x_StdPeriphDriver/src/apm32f10x_rcm.c ****  */
 484:Library/APM32F10x_StdPeriphDriver/src/apm32f10x_rcm.c **** uint32_t RCM_ReadSYSCLKFreq(void)
 485:Library/APM32F10x_StdPeriphDriver/src/apm32f10x_rcm.c **** {
 940              		.loc 1 485 1 is_stmt 1 view -0
 941              		.cfi_startproc
 942              		@ args = 0, pretend = 0, frame = 0
 943              		@ frame_needed = 0, uses_anonymous_args = 0
 944              		@ link register save eliminated.
 486:Library/APM32F10x_StdPeriphDriver/src/apm32f10x_rcm.c ****     uint32_t sysClock, pllMull, pllSource;
 945              		.loc 1 486 5 view .LVU158
 487:Library/APM32F10x_StdPeriphDriver/src/apm32f10x_rcm.c **** 
 488:Library/APM32F10x_StdPeriphDriver/src/apm32f10x_rcm.c ****     /** get sys clock */
 489:Library/APM32F10x_StdPeriphDriver/src/apm32f10x_rcm.c ****     sysClock = RCM->CFG_B.SCLKSEL;
 946              		.loc 1 489 5 view .LVU159
 947              		.loc 1 489 26 is_stmt 0 view .LVU160
 948 0000 104B     		ldr	r3, .L100
 949 0002 5B68     		ldr	r3, [r3, #4]
 950 0004 03F00303 		and	r3, r3, #3
 951              	.LVL14:
 490:Library/APM32F10x_StdPeriphDriver/src/apm32f10x_rcm.c **** 
 491:Library/APM32F10x_StdPeriphDriver/src/apm32f10x_rcm.c ****     switch (sysClock)
 952              		.loc 1 491 5 is_stmt 1 view .LVU161
 953 0008 022B     		cmp	r3, #2
 954 000a 01D0     		beq	.L98
 492:Library/APM32F10x_StdPeriphDriver/src/apm32f10x_rcm.c ****     {
 493:Library/APM32F10x_StdPeriphDriver/src/apm32f10x_rcm.c ****         /** sys clock is HSI */
 494:Library/APM32F10x_StdPeriphDriver/src/apm32f10x_rcm.c ****         case RCM_SYSCLK_SEL_HSI:
 495:Library/APM32F10x_StdPeriphDriver/src/apm32f10x_rcm.c ****             sysClock = HSI_VALUE;
 955              		.loc 1 495 22 is_stmt 0 view .LVU162
 956 000c 0E48     		ldr	r0, .L100+4
 957              	.LVL15:
 496:Library/APM32F10x_StdPeriphDriver/src/apm32f10x_rcm.c ****             break;
 497:Library/APM32F10x_StdPeriphDriver/src/apm32f10x_rcm.c **** 
 498:Library/APM32F10x_StdPeriphDriver/src/apm32f10x_rcm.c ****         /** sys clock is HSE */
 499:Library/APM32F10x_StdPeriphDriver/src/apm32f10x_rcm.c ****         case RCM_SYSCLK_SEL_HSE:
 500:Library/APM32F10x_StdPeriphDriver/src/apm32f10x_rcm.c ****             sysClock = HSE_VALUE;
 501:Library/APM32F10x_StdPeriphDriver/src/apm32f10x_rcm.c ****             break;
 502:Library/APM32F10x_StdPeriphDriver/src/apm32f10x_rcm.c **** 
 503:Library/APM32F10x_StdPeriphDriver/src/apm32f10x_rcm.c ****         /** sys clock is PLL */
 504:Library/APM32F10x_StdPeriphDriver/src/apm32f10x_rcm.c ****         case RCM_SYSCLK_SEL_PLL:
 505:Library/APM32F10x_StdPeriphDriver/src/apm32f10x_rcm.c ****             pllMull = RCM->CFG_B.PLLMULCFG + 2;
 506:Library/APM32F10x_StdPeriphDriver/src/apm32f10x_rcm.c ****             pllSource = RCM->CFG_B.PLLSRCSEL;
 507:Library/APM32F10x_StdPeriphDriver/src/apm32f10x_rcm.c **** 
 508:Library/APM32F10x_StdPeriphDriver/src/apm32f10x_rcm.c ****             /** PLL entry clock source is HSE */
 509:Library/APM32F10x_StdPeriphDriver/src/apm32f10x_rcm.c ****             if (pllSource == BIT_SET)
ARM GAS  C:\Users\geehy\AppData\Local\Temp\ccYSLlwr.s 			page 26


 510:Library/APM32F10x_StdPeriphDriver/src/apm32f10x_rcm.c ****             {
 511:Library/APM32F10x_StdPeriphDriver/src/apm32f10x_rcm.c ****                 sysClock = HSE_VALUE * pllMull;
 512:Library/APM32F10x_StdPeriphDriver/src/apm32f10x_rcm.c **** 
 513:Library/APM32F10x_StdPeriphDriver/src/apm32f10x_rcm.c ****                 /** HSE clock divided by 2 */
 514:Library/APM32F10x_StdPeriphDriver/src/apm32f10x_rcm.c ****                 if (pllSource == RCM->CFG_B.PLLHSEPSC)
 515:Library/APM32F10x_StdPeriphDriver/src/apm32f10x_rcm.c ****                 {
 516:Library/APM32F10x_StdPeriphDriver/src/apm32f10x_rcm.c ****                     sysClock >>= 1;
 517:Library/APM32F10x_StdPeriphDriver/src/apm32f10x_rcm.c ****                 }
 518:Library/APM32F10x_StdPeriphDriver/src/apm32f10x_rcm.c ****             }
 519:Library/APM32F10x_StdPeriphDriver/src/apm32f10x_rcm.c ****             /** PLL entry clock source is HSI/2 */
 520:Library/APM32F10x_StdPeriphDriver/src/apm32f10x_rcm.c ****             else
 521:Library/APM32F10x_StdPeriphDriver/src/apm32f10x_rcm.c ****             {
 522:Library/APM32F10x_StdPeriphDriver/src/apm32f10x_rcm.c ****                 sysClock = (HSI_VALUE >> 1) * pllMull;
 523:Library/APM32F10x_StdPeriphDriver/src/apm32f10x_rcm.c ****             }
 524:Library/APM32F10x_StdPeriphDriver/src/apm32f10x_rcm.c **** 
 525:Library/APM32F10x_StdPeriphDriver/src/apm32f10x_rcm.c ****             break;
 526:Library/APM32F10x_StdPeriphDriver/src/apm32f10x_rcm.c **** 
 527:Library/APM32F10x_StdPeriphDriver/src/apm32f10x_rcm.c ****         default:
 528:Library/APM32F10x_StdPeriphDriver/src/apm32f10x_rcm.c ****             sysClock  = HSI_VALUE;
 529:Library/APM32F10x_StdPeriphDriver/src/apm32f10x_rcm.c ****             break;
 530:Library/APM32F10x_StdPeriphDriver/src/apm32f10x_rcm.c ****     }
 531:Library/APM32F10x_StdPeriphDriver/src/apm32f10x_rcm.c **** 
 532:Library/APM32F10x_StdPeriphDriver/src/apm32f10x_rcm.c ****     return sysClock;
 958              		.loc 1 532 5 is_stmt 1 view .LVU163
 959              	.L94:
 533:Library/APM32F10x_StdPeriphDriver/src/apm32f10x_rcm.c **** }
 960              		.loc 1 533 1 is_stmt 0 view .LVU164
 961 000e 7047     		bx	lr
 962              	.L98:
 505:Library/APM32F10x_StdPeriphDriver/src/apm32f10x_rcm.c ****             pllSource = RCM->CFG_B.PLLSRCSEL;
 963              		.loc 1 505 13 is_stmt 1 view .LVU165
 505:Library/APM32F10x_StdPeriphDriver/src/apm32f10x_rcm.c ****             pllSource = RCM->CFG_B.PLLSRCSEL;
 964              		.loc 1 505 33 is_stmt 0 view .LVU166
 965 0010 0C4B     		ldr	r3, .L100
 966 0012 5868     		ldr	r0, [r3, #4]
 967 0014 C0F38340 		ubfx	r0, r0, #18, #4
 505:Library/APM32F10x_StdPeriphDriver/src/apm32f10x_rcm.c ****             pllSource = RCM->CFG_B.PLLSRCSEL;
 968              		.loc 1 505 44 view .LVU167
 969 0018 0230     		adds	r0, r0, #2
 970              	.LVL16:
 506:Library/APM32F10x_StdPeriphDriver/src/apm32f10x_rcm.c **** 
 971              		.loc 1 506 13 is_stmt 1 view .LVU168
 506:Library/APM32F10x_StdPeriphDriver/src/apm32f10x_rcm.c **** 
 972              		.loc 1 506 35 is_stmt 0 view .LVU169
 973 001a 5B68     		ldr	r3, [r3, #4]
 974 001c C3F30042 		ubfx	r2, r3, #16, #1
 975              	.LVL17:
 509:Library/APM32F10x_StdPeriphDriver/src/apm32f10x_rcm.c ****             {
 976              		.loc 1 509 13 is_stmt 1 view .LVU170
 509:Library/APM32F10x_StdPeriphDriver/src/apm32f10x_rcm.c ****             {
 977              		.loc 1 509 16 is_stmt 0 view .LVU171
 978 0020 13F4803F 		tst	r3, #65536
 979 0024 03D1     		bne	.L99
 522:Library/APM32F10x_StdPeriphDriver/src/apm32f10x_rcm.c ****             }
 980              		.loc 1 522 17 is_stmt 1 view .LVU172
 522:Library/APM32F10x_StdPeriphDriver/src/apm32f10x_rcm.c ****             }
 981              		.loc 1 522 26 is_stmt 0 view .LVU173
ARM GAS  C:\Users\geehy\AppData\Local\Temp\ccYSLlwr.s 			page 27


 982 0026 094B     		ldr	r3, .L100+8
 983 0028 03FB00F0 		mul	r0, r3, r0
 984              	.LVL18:
 522:Library/APM32F10x_StdPeriphDriver/src/apm32f10x_rcm.c ****             }
 985              		.loc 1 522 26 view .LVU174
 986 002c 7047     		bx	lr
 987              	.LVL19:
 988              	.L99:
 511:Library/APM32F10x_StdPeriphDriver/src/apm32f10x_rcm.c **** 
 989              		.loc 1 511 17 is_stmt 1 view .LVU175
 511:Library/APM32F10x_StdPeriphDriver/src/apm32f10x_rcm.c **** 
 990              		.loc 1 511 26 is_stmt 0 view .LVU176
 991 002e 064B     		ldr	r3, .L100+4
 992 0030 03FB00F0 		mul	r0, r3, r0
 993              	.LVL20:
 514:Library/APM32F10x_StdPeriphDriver/src/apm32f10x_rcm.c ****                 {
 994              		.loc 1 514 17 is_stmt 1 view .LVU177
 514:Library/APM32F10x_StdPeriphDriver/src/apm32f10x_rcm.c ****                 {
 995              		.loc 1 514 44 is_stmt 0 view .LVU178
 996 0034 034B     		ldr	r3, .L100
 997 0036 5B68     		ldr	r3, [r3, #4]
 998 0038 C3F34043 		ubfx	r3, r3, #17, #1
 514:Library/APM32F10x_StdPeriphDriver/src/apm32f10x_rcm.c ****                 {
 999              		.loc 1 514 20 view .LVU179
 1000 003c 9A42     		cmp	r2, r3
 1001 003e E6D1     		bne	.L94
 516:Library/APM32F10x_StdPeriphDriver/src/apm32f10x_rcm.c ****                 }
 1002              		.loc 1 516 21 is_stmt 1 view .LVU180
 516:Library/APM32F10x_StdPeriphDriver/src/apm32f10x_rcm.c ****                 }
 1003              		.loc 1 516 30 is_stmt 0 view .LVU181
 1004 0040 4008     		lsrs	r0, r0, #1
 1005              	.LVL21:
 516:Library/APM32F10x_StdPeriphDriver/src/apm32f10x_rcm.c ****                 }
 1006              		.loc 1 516 30 view .LVU182
 1007 0042 7047     		bx	lr
 1008              	.L101:
 1009              		.align	2
 1010              	.L100:
 1011 0044 00100240 		.word	1073876992
 1012 0048 00127A00 		.word	8000000
 1013 004c 00093D00 		.word	4000000
 1014              		.cfi_endproc
 1015              	.LFE91:
 1017              		.section	.text.RCM_ReadHCLKFreq,"ax",%progbits
 1018              		.align	1
 1019              		.global	RCM_ReadHCLKFreq
 1020              		.syntax unified
 1021              		.thumb
 1022              		.thumb_func
 1024              	RCM_ReadHCLKFreq:
 1025              	.LFB92:
 534:Library/APM32F10x_StdPeriphDriver/src/apm32f10x_rcm.c **** 
 535:Library/APM32F10x_StdPeriphDriver/src/apm32f10x_rcm.c **** /*!
 536:Library/APM32F10x_StdPeriphDriver/src/apm32f10x_rcm.c ****  * @brief     Reads the frequency of HCLK(AHB)
 537:Library/APM32F10x_StdPeriphDriver/src/apm32f10x_rcm.c ****  *
 538:Library/APM32F10x_StdPeriphDriver/src/apm32f10x_rcm.c ****  * @param     None
 539:Library/APM32F10x_StdPeriphDriver/src/apm32f10x_rcm.c ****  *
ARM GAS  C:\Users\geehy\AppData\Local\Temp\ccYSLlwr.s 			page 28


 540:Library/APM32F10x_StdPeriphDriver/src/apm32f10x_rcm.c ****  * @retval    Return the frequency of HCLK
 541:Library/APM32F10x_StdPeriphDriver/src/apm32f10x_rcm.c ****  */
 542:Library/APM32F10x_StdPeriphDriver/src/apm32f10x_rcm.c **** uint32_t RCM_ReadHCLKFreq(void)
 543:Library/APM32F10x_StdPeriphDriver/src/apm32f10x_rcm.c **** {
 1026              		.loc 1 543 1 is_stmt 1 view -0
 1027              		.cfi_startproc
 1028              		@ args = 0, pretend = 0, frame = 16
 1029              		@ frame_needed = 0, uses_anonymous_args = 0
 1030 0000 00B5     		push	{lr}
 1031              	.LCFI2:
 1032              		.cfi_def_cfa_offset 4
 1033              		.cfi_offset 14, -4
 1034 0002 85B0     		sub	sp, sp, #20
 1035              	.LCFI3:
 1036              		.cfi_def_cfa_offset 24
 544:Library/APM32F10x_StdPeriphDriver/src/apm32f10x_rcm.c ****     uint32_t divider;
 1037              		.loc 1 544 5 view .LVU184
 545:Library/APM32F10x_StdPeriphDriver/src/apm32f10x_rcm.c ****     uint32_t sysClk, hclk;
 1038              		.loc 1 545 5 view .LVU185
 546:Library/APM32F10x_StdPeriphDriver/src/apm32f10x_rcm.c ****     uint8_t AHBPrescTable[16] = {0, 0, 0, 0, 0, 0, 0, 0, 1, 2, 3, 4, 6, 7, 8, 9};
 1039              		.loc 1 546 5 view .LVU186
 1040              		.loc 1 546 13 is_stmt 0 view .LVU187
 1041 0004 094B     		ldr	r3, .L104
 1042 0006 0FCB     		ldm	r3, {r0, r1, r2, r3}
 1043 0008 0DF1100C 		add	ip, sp, #16
 1044 000c 0CE90F00 		stmdb	ip, {r0, r1, r2, r3}
 547:Library/APM32F10x_StdPeriphDriver/src/apm32f10x_rcm.c **** 
 548:Library/APM32F10x_StdPeriphDriver/src/apm32f10x_rcm.c ****     sysClk = RCM_ReadSYSCLKFreq();
 1045              		.loc 1 548 5 is_stmt 1 view .LVU188
 1046              		.loc 1 548 14 is_stmt 0 view .LVU189
 1047 0010 FFF7FEFF 		bl	RCM_ReadSYSCLKFreq
 1048              	.LVL22:
 549:Library/APM32F10x_StdPeriphDriver/src/apm32f10x_rcm.c ****     divider = AHBPrescTable[RCM->CFG_B.AHBPSC];
 1049              		.loc 1 549 5 is_stmt 1 view .LVU190
 1050              		.loc 1 549 39 is_stmt 0 view .LVU191
 1051 0014 064B     		ldr	r3, .L104+4
 1052 0016 5B68     		ldr	r3, [r3, #4]
 1053 0018 C3F30313 		ubfx	r3, r3, #4, #4
 1054              		.loc 1 549 28 view .LVU192
 1055 001c 1033     		adds	r3, r3, #16
 1056 001e 6B44     		add	r3, sp, r3
 1057 0020 13F8103C 		ldrb	r3, [r3, #-16]	@ zero_extendqisi2
 1058              	.LVL23:
 550:Library/APM32F10x_StdPeriphDriver/src/apm32f10x_rcm.c ****     hclk = sysClk >> divider;
 1059              		.loc 1 550 5 is_stmt 1 view .LVU193
 551:Library/APM32F10x_StdPeriphDriver/src/apm32f10x_rcm.c **** 
 552:Library/APM32F10x_StdPeriphDriver/src/apm32f10x_rcm.c ****     return hclk;
 1060              		.loc 1 552 5 view .LVU194
 553:Library/APM32F10x_StdPeriphDriver/src/apm32f10x_rcm.c **** }
 1061              		.loc 1 553 1 is_stmt 0 view .LVU195
 1062 0024 D840     		lsrs	r0, r0, r3
 1063              	.LVL24:
 1064              		.loc 1 553 1 view .LVU196
 1065 0026 05B0     		add	sp, sp, #20
 1066              	.LCFI4:
 1067              		.cfi_def_cfa_offset 4
 1068              		@ sp needed
ARM GAS  C:\Users\geehy\AppData\Local\Temp\ccYSLlwr.s 			page 29


 1069 0028 5DF804FB 		ldr	pc, [sp], #4
 1070              	.L105:
 1071              		.align	2
 1072              	.L104:
 1073 002c 00000000 		.word	.LANCHOR0
 1074 0030 00100240 		.word	1073876992
 1075              		.cfi_endproc
 1076              	.LFE92:
 1078              		.section	.text.RCM_ReadPCLKFreq,"ax",%progbits
 1079              		.align	1
 1080              		.global	RCM_ReadPCLKFreq
 1081              		.syntax unified
 1082              		.thumb
 1083              		.thumb_func
 1085              	RCM_ReadPCLKFreq:
 1086              	.LVL25:
 1087              	.LFB93:
 554:Library/APM32F10x_StdPeriphDriver/src/apm32f10x_rcm.c **** 
 555:Library/APM32F10x_StdPeriphDriver/src/apm32f10x_rcm.c **** /*!
 556:Library/APM32F10x_StdPeriphDriver/src/apm32f10x_rcm.c ****  * @brief     Reads the frequency of PCLK1 And PCLK2
 557:Library/APM32F10x_StdPeriphDriver/src/apm32f10x_rcm.c ****  *
 558:Library/APM32F10x_StdPeriphDriver/src/apm32f10x_rcm.c ****  * @param     PCLK1 : Return the frequency of PCLK1
 559:Library/APM32F10x_StdPeriphDriver/src/apm32f10x_rcm.c ****  *
 560:Library/APM32F10x_StdPeriphDriver/src/apm32f10x_rcm.c ****  * @param     PCLK1 : Return the frequency of PCLK2
 561:Library/APM32F10x_StdPeriphDriver/src/apm32f10x_rcm.c ****  *
 562:Library/APM32F10x_StdPeriphDriver/src/apm32f10x_rcm.c ****  * @retval    None
 563:Library/APM32F10x_StdPeriphDriver/src/apm32f10x_rcm.c ****  */
 564:Library/APM32F10x_StdPeriphDriver/src/apm32f10x_rcm.c **** void RCM_ReadPCLKFreq(uint32_t* PCLK1, uint32_t* PCLK2)
 565:Library/APM32F10x_StdPeriphDriver/src/apm32f10x_rcm.c **** {
 1088              		.loc 1 565 1 is_stmt 1 view -0
 1089              		.cfi_startproc
 1090              		@ args = 0, pretend = 0, frame = 8
 1091              		@ frame_needed = 0, uses_anonymous_args = 0
 1092              		.loc 1 565 1 is_stmt 0 view .LVU198
 1093 0000 30B5     		push	{r4, r5, lr}
 1094              	.LCFI5:
 1095              		.cfi_def_cfa_offset 12
 1096              		.cfi_offset 4, -12
 1097              		.cfi_offset 5, -8
 1098              		.cfi_offset 14, -4
 1099 0002 83B0     		sub	sp, sp, #12
 1100              	.LCFI6:
 1101              		.cfi_def_cfa_offset 24
 1102 0004 0546     		mov	r5, r0
 1103 0006 0C46     		mov	r4, r1
 566:Library/APM32F10x_StdPeriphDriver/src/apm32f10x_rcm.c ****     uint32_t hclk, divider;
 1104              		.loc 1 566 5 is_stmt 1 view .LVU199
 567:Library/APM32F10x_StdPeriphDriver/src/apm32f10x_rcm.c ****     uint8_t APBPrescTable[8] = {0, 0, 0, 0, 1, 2, 3, 4};
 1105              		.loc 1 567 5 view .LVU200
 1106              		.loc 1 567 13 is_stmt 0 view .LVU201
 1107 0008 104B     		ldr	r3, .L110
 1108 000a 93E80300 		ldm	r3, {r0, r1}
 1109              	.LVL26:
 1110              		.loc 1 567 13 view .LVU202
 1111 000e 02AB     		add	r3, sp, #8
 1112 0010 03E90300 		stmdb	r3, {r0, r1}
 568:Library/APM32F10x_StdPeriphDriver/src/apm32f10x_rcm.c **** 
ARM GAS  C:\Users\geehy\AppData\Local\Temp\ccYSLlwr.s 			page 30


 569:Library/APM32F10x_StdPeriphDriver/src/apm32f10x_rcm.c ****     hclk = RCM_ReadHCLKFreq();
 1113              		.loc 1 569 5 is_stmt 1 view .LVU203
 1114              		.loc 1 569 12 is_stmt 0 view .LVU204
 1115 0014 FFF7FEFF 		bl	RCM_ReadHCLKFreq
 1116              	.LVL27:
 570:Library/APM32F10x_StdPeriphDriver/src/apm32f10x_rcm.c **** 
 571:Library/APM32F10x_StdPeriphDriver/src/apm32f10x_rcm.c ****     if (PCLK1)
 1117              		.loc 1 571 5 is_stmt 1 view .LVU205
 1118              		.loc 1 571 8 is_stmt 0 view .LVU206
 1119 0018 55B1     		cbz	r5, .L107
 572:Library/APM32F10x_StdPeriphDriver/src/apm32f10x_rcm.c ****     {
 573:Library/APM32F10x_StdPeriphDriver/src/apm32f10x_rcm.c ****         divider = APBPrescTable[RCM->CFG_B.APB1PSC];
 1120              		.loc 1 573 9 is_stmt 1 view .LVU207
 1121              		.loc 1 573 43 is_stmt 0 view .LVU208
 1122 001a 0D4B     		ldr	r3, .L110+4
 1123 001c 5B68     		ldr	r3, [r3, #4]
 1124 001e C3F30223 		ubfx	r3, r3, #8, #3
 1125              		.loc 1 573 32 view .LVU209
 1126 0022 0833     		adds	r3, r3, #8
 1127 0024 6B44     		add	r3, sp, r3
 1128 0026 13F8083C 		ldrb	r3, [r3, #-8]	@ zero_extendqisi2
 1129              	.LVL28:
 574:Library/APM32F10x_StdPeriphDriver/src/apm32f10x_rcm.c ****         *PCLK1 = hclk >> divider;
 1130              		.loc 1 574 9 is_stmt 1 view .LVU210
 1131              		.loc 1 574 23 is_stmt 0 view .LVU211
 1132 002a 20FA03F3 		lsr	r3, r0, r3
 1133              	.LVL29:
 1134              		.loc 1 574 16 view .LVU212
 1135 002e 2B60     		str	r3, [r5]
 1136              	.L107:
 575:Library/APM32F10x_StdPeriphDriver/src/apm32f10x_rcm.c ****     }
 576:Library/APM32F10x_StdPeriphDriver/src/apm32f10x_rcm.c **** 
 577:Library/APM32F10x_StdPeriphDriver/src/apm32f10x_rcm.c ****     if (PCLK2)
 1137              		.loc 1 577 5 is_stmt 1 view .LVU213
 1138              		.loc 1 577 8 is_stmt 0 view .LVU214
 1139 0030 4CB1     		cbz	r4, .L106
 578:Library/APM32F10x_StdPeriphDriver/src/apm32f10x_rcm.c ****     {
 579:Library/APM32F10x_StdPeriphDriver/src/apm32f10x_rcm.c ****         divider = APBPrescTable[RCM->CFG_B.APB2PSC];
 1140              		.loc 1 579 9 is_stmt 1 view .LVU215
 1141              		.loc 1 579 43 is_stmt 0 view .LVU216
 1142 0032 074B     		ldr	r3, .L110+4
 1143 0034 5B68     		ldr	r3, [r3, #4]
 1144 0036 C3F3C223 		ubfx	r3, r3, #11, #3
 1145              		.loc 1 579 32 view .LVU217
 1146 003a 0833     		adds	r3, r3, #8
 1147 003c 6B44     		add	r3, sp, r3
 1148 003e 13F8083C 		ldrb	r3, [r3, #-8]	@ zero_extendqisi2
 1149              	.LVL30:
 580:Library/APM32F10x_StdPeriphDriver/src/apm32f10x_rcm.c ****         *PCLK2 = hclk >> divider;
 1150              		.loc 1 580 9 is_stmt 1 view .LVU218
 1151              		.loc 1 580 23 is_stmt 0 view .LVU219
 1152 0042 D840     		lsrs	r0, r0, r3
 1153              	.LVL31:
 1154              		.loc 1 580 16 view .LVU220
 1155 0044 2060     		str	r0, [r4]
 1156              	.LVL32:
 1157              	.L106:
ARM GAS  C:\Users\geehy\AppData\Local\Temp\ccYSLlwr.s 			page 31


 581:Library/APM32F10x_StdPeriphDriver/src/apm32f10x_rcm.c ****     }
 582:Library/APM32F10x_StdPeriphDriver/src/apm32f10x_rcm.c **** }
 1158              		.loc 1 582 1 view .LVU221
 1159 0046 03B0     		add	sp, sp, #12
 1160              	.LCFI7:
 1161              		.cfi_def_cfa_offset 12
 1162              		@ sp needed
 1163 0048 30BD     		pop	{r4, r5, pc}
 1164              	.LVL33:
 1165              	.L111:
 1166              		.loc 1 582 1 view .LVU222
 1167 004a 00BF     		.align	2
 1168              	.L110:
 1169 004c 10000000 		.word	.LANCHOR0+16
 1170 0050 00100240 		.word	1073876992
 1171              		.cfi_endproc
 1172              	.LFE93:
 1174              		.section	.text.RCM_ReadADCCLKFreq,"ax",%progbits
 1175              		.align	1
 1176              		.global	RCM_ReadADCCLKFreq
 1177              		.syntax unified
 1178              		.thumb
 1179              		.thumb_func
 1181              	RCM_ReadADCCLKFreq:
 1182              	.LFB94:
 583:Library/APM32F10x_StdPeriphDriver/src/apm32f10x_rcm.c **** 
 584:Library/APM32F10x_StdPeriphDriver/src/apm32f10x_rcm.c **** /*!
 585:Library/APM32F10x_StdPeriphDriver/src/apm32f10x_rcm.c ****  * @brief     Reads the frequency of ADCCLK
 586:Library/APM32F10x_StdPeriphDriver/src/apm32f10x_rcm.c ****  *
 587:Library/APM32F10x_StdPeriphDriver/src/apm32f10x_rcm.c ****  * @param     None
 588:Library/APM32F10x_StdPeriphDriver/src/apm32f10x_rcm.c ****  *
 589:Library/APM32F10x_StdPeriphDriver/src/apm32f10x_rcm.c ****  * @retval    Return the frequency of ADCCLK
 590:Library/APM32F10x_StdPeriphDriver/src/apm32f10x_rcm.c ****  */
 591:Library/APM32F10x_StdPeriphDriver/src/apm32f10x_rcm.c **** uint32_t RCM_ReadADCCLKFreq(void)
 592:Library/APM32F10x_StdPeriphDriver/src/apm32f10x_rcm.c **** {
 1183              		.loc 1 592 1 is_stmt 1 view -0
 1184              		.cfi_startproc
 1185              		@ args = 0, pretend = 0, frame = 8
 1186              		@ frame_needed = 0, uses_anonymous_args = 0
 1187 0000 00B5     		push	{lr}
 1188              	.LCFI8:
 1189              		.cfi_def_cfa_offset 4
 1190              		.cfi_offset 14, -4
 1191 0002 83B0     		sub	sp, sp, #12
 1192              	.LCFI9:
 1193              		.cfi_def_cfa_offset 16
 593:Library/APM32F10x_StdPeriphDriver/src/apm32f10x_rcm.c ****     uint32_t adcClk, pclk2, divider;
 1194              		.loc 1 593 5 view .LVU224
 594:Library/APM32F10x_StdPeriphDriver/src/apm32f10x_rcm.c ****     uint8_t ADCPrescTable[4] = {2, 4, 6, 8};
 1195              		.loc 1 594 5 view .LVU225
 1196              		.loc 1 594 13 is_stmt 0 view .LVU226
 1197 0004 094B     		ldr	r3, .L114
 1198 0006 0093     		str	r3, [sp]
 595:Library/APM32F10x_StdPeriphDriver/src/apm32f10x_rcm.c **** 
 596:Library/APM32F10x_StdPeriphDriver/src/apm32f10x_rcm.c ****     RCM_ReadPCLKFreq(NULL, &pclk2);
 1199              		.loc 1 596 5 is_stmt 1 view .LVU227
 1200 0008 01A9     		add	r1, sp, #4
ARM GAS  C:\Users\geehy\AppData\Local\Temp\ccYSLlwr.s 			page 32


 1201 000a 0020     		movs	r0, #0
 1202 000c FFF7FEFF 		bl	RCM_ReadPCLKFreq
 1203              	.LVL34:
 597:Library/APM32F10x_StdPeriphDriver/src/apm32f10x_rcm.c **** 
 598:Library/APM32F10x_StdPeriphDriver/src/apm32f10x_rcm.c ****     /** Get ADC CLK */
 599:Library/APM32F10x_StdPeriphDriver/src/apm32f10x_rcm.c ****     divider = ADCPrescTable[RCM->CFG_B.ADCPSC];
 1204              		.loc 1 599 5 view .LVU228
 1205              		.loc 1 599 39 is_stmt 0 view .LVU229
 1206 0010 074B     		ldr	r3, .L114+4
 1207 0012 5B68     		ldr	r3, [r3, #4]
 1208 0014 C3F38133 		ubfx	r3, r3, #14, #2
 1209              		.loc 1 599 28 view .LVU230
 1210 0018 0833     		adds	r3, r3, #8
 1211 001a 6B44     		add	r3, sp, r3
 1212 001c 13F8083C 		ldrb	r3, [r3, #-8]	@ zero_extendqisi2
 1213              	.LVL35:
 600:Library/APM32F10x_StdPeriphDriver/src/apm32f10x_rcm.c ****     adcClk = pclk2 / divider;
 1214              		.loc 1 600 5 is_stmt 1 view .LVU231
 601:Library/APM32F10x_StdPeriphDriver/src/apm32f10x_rcm.c **** 
 602:Library/APM32F10x_StdPeriphDriver/src/apm32f10x_rcm.c ****     return adcClk;
 1215              		.loc 1 602 5 view .LVU232
 603:Library/APM32F10x_StdPeriphDriver/src/apm32f10x_rcm.c **** }
 1216              		.loc 1 603 1 is_stmt 0 view .LVU233
 1217 0020 0198     		ldr	r0, [sp, #4]
 1218 0022 B0FBF3F0 		udiv	r0, r0, r3
 1219              	.LVL36:
 1220              		.loc 1 603 1 view .LVU234
 1221 0026 03B0     		add	sp, sp, #12
 1222              	.LCFI10:
 1223              		.cfi_def_cfa_offset 4
 1224              		@ sp needed
 1225 0028 5DF804FB 		ldr	pc, [sp], #4
 1226              	.L115:
 1227              		.align	2
 1228              	.L114:
 1229 002c 02040608 		.word	134611970
 1230 0030 00100240 		.word	1073876992
 1231              		.cfi_endproc
 1232              	.LFE94:
 1234              		.section	.text.RCM_EnableAHBPeriphClock,"ax",%progbits
 1235              		.align	1
 1236              		.global	RCM_EnableAHBPeriphClock
 1237              		.syntax unified
 1238              		.thumb
 1239              		.thumb_func
 1241              	RCM_EnableAHBPeriphClock:
 1242              	.LVL37:
 1243              	.LFB95:
 604:Library/APM32F10x_StdPeriphDriver/src/apm32f10x_rcm.c **** 
 605:Library/APM32F10x_StdPeriphDriver/src/apm32f10x_rcm.c **** /*!
 606:Library/APM32F10x_StdPeriphDriver/src/apm32f10x_rcm.c ****  * @brief    Enables AHB peripheral clock.
 607:Library/APM32F10x_StdPeriphDriver/src/apm32f10x_rcm.c ****  *
 608:Library/APM32F10x_StdPeriphDriver/src/apm32f10x_rcm.c ****  * @param    AHBPeriph : Enable the specifies clock of AHB peripheral.
 609:Library/APM32F10x_StdPeriphDriver/src/apm32f10x_rcm.c ****  *                       This parameter can be any combination of the following values:
 610:Library/APM32F10x_StdPeriphDriver/src/apm32f10x_rcm.c ****  *                       @arg RCM_AHB_PERIPH_DMA1 : Enable DMA1 clock
 611:Library/APM32F10x_StdPeriphDriver/src/apm32f10x_rcm.c ****  *                       @arg RCM_AHB_PERIPH_DMA2 : Enable DMA2 clock (Only for High-density device
 612:Library/APM32F10x_StdPeriphDriver/src/apm32f10x_rcm.c ****  *                       @arg RCM_AHB_PERIPH_SRAM : Enable SRAM clock
ARM GAS  C:\Users\geehy\AppData\Local\Temp\ccYSLlwr.s 			page 33


 613:Library/APM32F10x_StdPeriphDriver/src/apm32f10x_rcm.c ****  *                       @arg RCM_AHB_PERIPH_FPU  : Enable FPU clock
 614:Library/APM32F10x_StdPeriphDriver/src/apm32f10x_rcm.c ****  *                       @arg RCM_AHB_PERIPH_FMC  : Enable FMC clock
 615:Library/APM32F10x_StdPeriphDriver/src/apm32f10x_rcm.c ****  *                       @arg RCM_AHB_PERIPH_QSPI : Enable QSPI clock
 616:Library/APM32F10x_StdPeriphDriver/src/apm32f10x_rcm.c ****  *                       @arg RCM_AHB_PERIPH_CRC  : Enable CRC clock
 617:Library/APM32F10x_StdPeriphDriver/src/apm32f10x_rcm.c ****  *                       @arg RCM_AHB_PERIPH_EMMC : Enable EMMC clock (Only for High-density device
 618:Library/APM32F10x_StdPeriphDriver/src/apm32f10x_rcm.c ****  *                       @arg RCM_AHB_PERIPH_SDIO : Enable SDIO clock (Only for High-density device
 619:Library/APM32F10x_StdPeriphDriver/src/apm32f10x_rcm.c ****  *
 620:Library/APM32F10x_StdPeriphDriver/src/apm32f10x_rcm.c ****  * @retval   None
 621:Library/APM32F10x_StdPeriphDriver/src/apm32f10x_rcm.c ****  */
 622:Library/APM32F10x_StdPeriphDriver/src/apm32f10x_rcm.c **** void RCM_EnableAHBPeriphClock(uint32_t AHBPeriph)
 623:Library/APM32F10x_StdPeriphDriver/src/apm32f10x_rcm.c **** {
 1244              		.loc 1 623 1 is_stmt 1 view -0
 1245              		.cfi_startproc
 1246              		@ args = 0, pretend = 0, frame = 0
 1247              		@ frame_needed = 0, uses_anonymous_args = 0
 1248              		@ link register save eliminated.
 624:Library/APM32F10x_StdPeriphDriver/src/apm32f10x_rcm.c ****     RCM->AHBCLKEN |= AHBPeriph;
 1249              		.loc 1 624 5 view .LVU236
 1250              		.loc 1 624 19 is_stmt 0 view .LVU237
 1251 0000 024A     		ldr	r2, .L117
 1252 0002 5369     		ldr	r3, [r2, #20]
 1253 0004 0343     		orrs	r3, r3, r0
 1254 0006 5361     		str	r3, [r2, #20]
 625:Library/APM32F10x_StdPeriphDriver/src/apm32f10x_rcm.c **** }
 1255              		.loc 1 625 1 view .LVU238
 1256 0008 7047     		bx	lr
 1257              	.L118:
 1258 000a 00BF     		.align	2
 1259              	.L117:
 1260 000c 00100240 		.word	1073876992
 1261              		.cfi_endproc
 1262              	.LFE95:
 1264              		.section	.text.RCM_DisableAHBPeriphClock,"ax",%progbits
 1265              		.align	1
 1266              		.global	RCM_DisableAHBPeriphClock
 1267              		.syntax unified
 1268              		.thumb
 1269              		.thumb_func
 1271              	RCM_DisableAHBPeriphClock:
 1272              	.LVL38:
 1273              	.LFB96:
 626:Library/APM32F10x_StdPeriphDriver/src/apm32f10x_rcm.c **** 
 627:Library/APM32F10x_StdPeriphDriver/src/apm32f10x_rcm.c **** /*!
 628:Library/APM32F10x_StdPeriphDriver/src/apm32f10x_rcm.c ****  * @brief    Disable AHB peripheral clock.
 629:Library/APM32F10x_StdPeriphDriver/src/apm32f10x_rcm.c ****  *
 630:Library/APM32F10x_StdPeriphDriver/src/apm32f10x_rcm.c ****  * @param    AHBPeriph : Disable the specifies clock of AHB peripheral.
 631:Library/APM32F10x_StdPeriphDriver/src/apm32f10x_rcm.c ****  *                       This parameter can be any combination of the following values:
 632:Library/APM32F10x_StdPeriphDriver/src/apm32f10x_rcm.c ****  *                       @arg RCM_AHB_PERIPH_DMA1 : Disable DMA1 clock
 633:Library/APM32F10x_StdPeriphDriver/src/apm32f10x_rcm.c ****  *                       @arg RCM_AHB_PERIPH_DMA2 : Disable DMA2 clock (Only for High-density devic
 634:Library/APM32F10x_StdPeriphDriver/src/apm32f10x_rcm.c ****  *                       @arg RCM_AHB_PERIPH_SRAM : Disable SRAM clock
 635:Library/APM32F10x_StdPeriphDriver/src/apm32f10x_rcm.c ****  *                       @arg RCM_AHB_PERIPH_FPU  : Disable FPU clock
 636:Library/APM32F10x_StdPeriphDriver/src/apm32f10x_rcm.c ****  *                       @arg RCM_AHB_PERIPH_FMC  : Disable FMC clock
 637:Library/APM32F10x_StdPeriphDriver/src/apm32f10x_rcm.c ****  *                       @arg RCM_AHB_PERIPH_QSPI : Disable QSPI clock
 638:Library/APM32F10x_StdPeriphDriver/src/apm32f10x_rcm.c ****  *                       @arg RCM_AHB_PERIPH_CRC  : Disable CRC clock
 639:Library/APM32F10x_StdPeriphDriver/src/apm32f10x_rcm.c ****  *                       @arg RCM_AHB_PERIPH_EMMC : Disable EMMC clock (Only for High-density devic
 640:Library/APM32F10x_StdPeriphDriver/src/apm32f10x_rcm.c ****  *                       @arg RCM_AHB_PERIPH_SDIO : Disable SDIO clock (Only for High-density devic
 641:Library/APM32F10x_StdPeriphDriver/src/apm32f10x_rcm.c ****  *
ARM GAS  C:\Users\geehy\AppData\Local\Temp\ccYSLlwr.s 			page 34


 642:Library/APM32F10x_StdPeriphDriver/src/apm32f10x_rcm.c ****  * @retval   None
 643:Library/APM32F10x_StdPeriphDriver/src/apm32f10x_rcm.c ****  */
 644:Library/APM32F10x_StdPeriphDriver/src/apm32f10x_rcm.c **** void RCM_DisableAHBPeriphClock(uint32_t AHBPeriph)
 645:Library/APM32F10x_StdPeriphDriver/src/apm32f10x_rcm.c **** {
 1274              		.loc 1 645 1 is_stmt 1 view -0
 1275              		.cfi_startproc
 1276              		@ args = 0, pretend = 0, frame = 0
 1277              		@ frame_needed = 0, uses_anonymous_args = 0
 1278              		@ link register save eliminated.
 646:Library/APM32F10x_StdPeriphDriver/src/apm32f10x_rcm.c ****     RCM->AHBCLKEN &= (uint32_t)~AHBPeriph;
 1279              		.loc 1 646 5 view .LVU240
 1280              		.loc 1 646 19 is_stmt 0 view .LVU241
 1281 0000 024A     		ldr	r2, .L120
 1282 0002 5369     		ldr	r3, [r2, #20]
 1283 0004 23EA0003 		bic	r3, r3, r0
 1284 0008 5361     		str	r3, [r2, #20]
 647:Library/APM32F10x_StdPeriphDriver/src/apm32f10x_rcm.c **** }
 1285              		.loc 1 647 1 view .LVU242
 1286 000a 7047     		bx	lr
 1287              	.L121:
 1288              		.align	2
 1289              	.L120:
 1290 000c 00100240 		.word	1073876992
 1291              		.cfi_endproc
 1292              	.LFE96:
 1294              		.section	.text.RCM_EnableAPB2PeriphClock,"ax",%progbits
 1295              		.align	1
 1296              		.global	RCM_EnableAPB2PeriphClock
 1297              		.syntax unified
 1298              		.thumb
 1299              		.thumb_func
 1301              	RCM_EnableAPB2PeriphClock:
 1302              	.LVL39:
 1303              	.LFB97:
 648:Library/APM32F10x_StdPeriphDriver/src/apm32f10x_rcm.c **** 
 649:Library/APM32F10x_StdPeriphDriver/src/apm32f10x_rcm.c **** /*!
 650:Library/APM32F10x_StdPeriphDriver/src/apm32f10x_rcm.c ****  * @brief    Enable the High Speed APB (APB2) peripheral clock
 651:Library/APM32F10x_StdPeriphDriver/src/apm32f10x_rcm.c ****  *
 652:Library/APM32F10x_StdPeriphDriver/src/apm32f10x_rcm.c ****  * @param    APB2Periph : Enable specifies clock of the APB2 peripheral.
 653:Library/APM32F10x_StdPeriphDriver/src/apm32f10x_rcm.c ****  *                        This parameter can be any combination of the following values:
 654:Library/APM32F10x_StdPeriphDriver/src/apm32f10x_rcm.c ****  *                        @arg RCM_APB2_PERIPH_AFIO   : Enable AFIO clock
 655:Library/APM32F10x_StdPeriphDriver/src/apm32f10x_rcm.c ****  *                        @arg RCM_APB2_PERIPH_GPIOA  : Enable GPIOA clock
 656:Library/APM32F10x_StdPeriphDriver/src/apm32f10x_rcm.c ****  *                        @arg RCM_APB2_PERIPH_GPIOB  : Enable GPIOB clock
 657:Library/APM32F10x_StdPeriphDriver/src/apm32f10x_rcm.c ****  *                        @arg RCM_APB2_PERIPH_GPIOC  : Enable GPIOC clock
 658:Library/APM32F10x_StdPeriphDriver/src/apm32f10x_rcm.c ****  *                        @arg RCM_APB2_PERIPH_GPIOD  : Enable GPIOD clock
 659:Library/APM32F10x_StdPeriphDriver/src/apm32f10x_rcm.c ****  *                        @arg RCM_APB2_PERIPH_GPIOE  : Enable GPIOE clock
 660:Library/APM32F10x_StdPeriphDriver/src/apm32f10x_rcm.c ****  *                        @arg RCM_APB2_PERIPH_GPIOF  : Enable GPIOF clock (Only for High-density d
 661:Library/APM32F10x_StdPeriphDriver/src/apm32f10x_rcm.c ****  *                        @arg RCM_APB2_PERIPH_GPIOG  : Enable GPIOG clock (Only for High-density d
 662:Library/APM32F10x_StdPeriphDriver/src/apm32f10x_rcm.c ****  *                        @arg RCM_APB2_PERIPH_ADC1   : Enable ADC1 clock
 663:Library/APM32F10x_StdPeriphDriver/src/apm32f10x_rcm.c ****  *                        @arg RCM_APB2_PERIPH_ADC2   : Enable ADC2 clock
 664:Library/APM32F10x_StdPeriphDriver/src/apm32f10x_rcm.c ****  *                        @arg RCM_APB2_PERIPH_TMR1   : Enable TMR1 clock
 665:Library/APM32F10x_StdPeriphDriver/src/apm32f10x_rcm.c ****  *                        @arg RCM_APB2_PERIPH_SPI1   : Enable SPI1 clock
 666:Library/APM32F10x_StdPeriphDriver/src/apm32f10x_rcm.c ****  *                        @arg RCM_APB2_PERIPH_TMR8   : Enable TMR8 clock (Only for High-density de
 667:Library/APM32F10x_StdPeriphDriver/src/apm32f10x_rcm.c ****  *                        @arg RCM_APB2_PERIPH_USART1 : Enable USART1 clock
 668:Library/APM32F10x_StdPeriphDriver/src/apm32f10x_rcm.c ****  *                        @arg RCM_APB2_PERIPH_ADC3   : Enable ADC3 clock (Only for High-density de
 669:Library/APM32F10x_StdPeriphDriver/src/apm32f10x_rcm.c ****  *
 670:Library/APM32F10x_StdPeriphDriver/src/apm32f10x_rcm.c ****  * @retval   None
ARM GAS  C:\Users\geehy\AppData\Local\Temp\ccYSLlwr.s 			page 35


 671:Library/APM32F10x_StdPeriphDriver/src/apm32f10x_rcm.c ****  */
 672:Library/APM32F10x_StdPeriphDriver/src/apm32f10x_rcm.c **** void RCM_EnableAPB2PeriphClock(uint32_t APB2Periph)
 673:Library/APM32F10x_StdPeriphDriver/src/apm32f10x_rcm.c **** {
 1304              		.loc 1 673 1 is_stmt 1 view -0
 1305              		.cfi_startproc
 1306              		@ args = 0, pretend = 0, frame = 0
 1307              		@ frame_needed = 0, uses_anonymous_args = 0
 1308              		@ link register save eliminated.
 674:Library/APM32F10x_StdPeriphDriver/src/apm32f10x_rcm.c ****     RCM->APB2CLKEN |= APB2Periph;
 1309              		.loc 1 674 5 view .LVU244
 1310              		.loc 1 674 20 is_stmt 0 view .LVU245
 1311 0000 024A     		ldr	r2, .L123
 1312 0002 9369     		ldr	r3, [r2, #24]
 1313 0004 0343     		orrs	r3, r3, r0
 1314 0006 9361     		str	r3, [r2, #24]
 675:Library/APM32F10x_StdPeriphDriver/src/apm32f10x_rcm.c **** }
 1315              		.loc 1 675 1 view .LVU246
 1316 0008 7047     		bx	lr
 1317              	.L124:
 1318 000a 00BF     		.align	2
 1319              	.L123:
 1320 000c 00100240 		.word	1073876992
 1321              		.cfi_endproc
 1322              	.LFE97:
 1324              		.section	.text.RCM_DisableAPB2PeriphClock,"ax",%progbits
 1325              		.align	1
 1326              		.global	RCM_DisableAPB2PeriphClock
 1327              		.syntax unified
 1328              		.thumb
 1329              		.thumb_func
 1331              	RCM_DisableAPB2PeriphClock:
 1332              	.LVL40:
 1333              	.LFB98:
 676:Library/APM32F10x_StdPeriphDriver/src/apm32f10x_rcm.c **** 
 677:Library/APM32F10x_StdPeriphDriver/src/apm32f10x_rcm.c **** /*!
 678:Library/APM32F10x_StdPeriphDriver/src/apm32f10x_rcm.c ****  * @brief    Disable the High Speed APB (APB2) peripheral clock
 679:Library/APM32F10x_StdPeriphDriver/src/apm32f10x_rcm.c ****  *
 680:Library/APM32F10x_StdPeriphDriver/src/apm32f10x_rcm.c ****  * @param    APB2Periph : Disable specifies clock of the APB2 peripheral.
 681:Library/APM32F10x_StdPeriphDriver/src/apm32f10x_rcm.c ****  *                        This parameter can be any combination of the following values:
 682:Library/APM32F10x_StdPeriphDriver/src/apm32f10x_rcm.c ****  *                        @arg RCM_APB2_PERIPH_AFIO   : Disable AFIO clock
 683:Library/APM32F10x_StdPeriphDriver/src/apm32f10x_rcm.c ****  *                        @arg RCM_APB2_PERIPH_GPIOA  : Disable GPIOA clock
 684:Library/APM32F10x_StdPeriphDriver/src/apm32f10x_rcm.c ****  *                        @arg RCM_APB2_PERIPH_GPIOB  : Disable GPIOB clock
 685:Library/APM32F10x_StdPeriphDriver/src/apm32f10x_rcm.c ****  *                        @arg RCM_APB2_PERIPH_GPIOC  : Disable GPIOC clock
 686:Library/APM32F10x_StdPeriphDriver/src/apm32f10x_rcm.c ****  *                        @arg RCM_APB2_PERIPH_GPIOD  : Disable GPIOD clock
 687:Library/APM32F10x_StdPeriphDriver/src/apm32f10x_rcm.c ****  *                        @arg RCM_APB2_PERIPH_GPIOE  : Disable GPIOE clock
 688:Library/APM32F10x_StdPeriphDriver/src/apm32f10x_rcm.c ****  *                        @arg RCM_APB2_PERIPH_GPIOF  : Disable GPIOF clock (Only for High-density 
 689:Library/APM32F10x_StdPeriphDriver/src/apm32f10x_rcm.c ****  *                        @arg RCM_APB2_PERIPH_GPIOG  : Disable GPIOG clock (Only for High-density 
 690:Library/APM32F10x_StdPeriphDriver/src/apm32f10x_rcm.c ****  *                        @arg RCM_APB2_PERIPH_ADC1   : Disable ADC1 clock
 691:Library/APM32F10x_StdPeriphDriver/src/apm32f10x_rcm.c ****  *                        @arg RCM_APB2_PERIPH_ADC2   : Disable ADC2 clock
 692:Library/APM32F10x_StdPeriphDriver/src/apm32f10x_rcm.c ****  *                        @arg RCM_APB2_PERIPH_TMR1   : Disable TMR1 clock
 693:Library/APM32F10x_StdPeriphDriver/src/apm32f10x_rcm.c ****  *                        @arg RCM_APB2_PERIPH_SPI1   : Disable SPI1 clock
 694:Library/APM32F10x_StdPeriphDriver/src/apm32f10x_rcm.c ****  *                        @arg RCM_APB2_PERIPH_TMR8   : Disable TMR8 clock (Only for High-density d
 695:Library/APM32F10x_StdPeriphDriver/src/apm32f10x_rcm.c ****  *                        @arg RCM_APB2_PERIPH_USART1 : Disable USART1 clock
 696:Library/APM32F10x_StdPeriphDriver/src/apm32f10x_rcm.c ****  *                        @arg RCM_APB2_PERIPH_ADC3   : Disable ADC3 clock (Only for High-density d
 697:Library/APM32F10x_StdPeriphDriver/src/apm32f10x_rcm.c ****  *
 698:Library/APM32F10x_StdPeriphDriver/src/apm32f10x_rcm.c ****  * @retval   None
 699:Library/APM32F10x_StdPeriphDriver/src/apm32f10x_rcm.c ****  */
ARM GAS  C:\Users\geehy\AppData\Local\Temp\ccYSLlwr.s 			page 36


 700:Library/APM32F10x_StdPeriphDriver/src/apm32f10x_rcm.c **** void RCM_DisableAPB2PeriphClock(uint32_t APB2Periph)
 701:Library/APM32F10x_StdPeriphDriver/src/apm32f10x_rcm.c **** {
 1334              		.loc 1 701 1 is_stmt 1 view -0
 1335              		.cfi_startproc
 1336              		@ args = 0, pretend = 0, frame = 0
 1337              		@ frame_needed = 0, uses_anonymous_args = 0
 1338              		@ link register save eliminated.
 702:Library/APM32F10x_StdPeriphDriver/src/apm32f10x_rcm.c ****     RCM->APB2CLKEN &= (uint32_t)~APB2Periph;
 1339              		.loc 1 702 5 view .LVU248
 1340              		.loc 1 702 20 is_stmt 0 view .LVU249
 1341 0000 024A     		ldr	r2, .L126
 1342 0002 9369     		ldr	r3, [r2, #24]
 1343 0004 23EA0003 		bic	r3, r3, r0
 1344 0008 9361     		str	r3, [r2, #24]
 703:Library/APM32F10x_StdPeriphDriver/src/apm32f10x_rcm.c **** }
 1345              		.loc 1 703 1 view .LVU250
 1346 000a 7047     		bx	lr
 1347              	.L127:
 1348              		.align	2
 1349              	.L126:
 1350 000c 00100240 		.word	1073876992
 1351              		.cfi_endproc
 1352              	.LFE98:
 1354              		.section	.text.RCM_EnableAPB1PeriphClock,"ax",%progbits
 1355              		.align	1
 1356              		.global	RCM_EnableAPB1PeriphClock
 1357              		.syntax unified
 1358              		.thumb
 1359              		.thumb_func
 1361              	RCM_EnableAPB1PeriphClock:
 1362              	.LVL41:
 1363              	.LFB99:
 704:Library/APM32F10x_StdPeriphDriver/src/apm32f10x_rcm.c **** 
 705:Library/APM32F10x_StdPeriphDriver/src/apm32f10x_rcm.c **** /*!
 706:Library/APM32F10x_StdPeriphDriver/src/apm32f10x_rcm.c ****  * @brief    Enable the Low Speed APB (APB1) peripheral clock
 707:Library/APM32F10x_StdPeriphDriver/src/apm32f10x_rcm.c ****  *
 708:Library/APM32F10x_StdPeriphDriver/src/apm32f10x_rcm.c ****  * @param    APB1Periph : Enable specifies clock of the APB1 peripheral.
 709:Library/APM32F10x_StdPeriphDriver/src/apm32f10x_rcm.c ****  *                        This parameter can be any combination of the following values:
 710:Library/APM32F10x_StdPeriphDriver/src/apm32f10x_rcm.c ****  *                        @arg RCM_APB1_PERIPH_TMR2   : Enable TMR2 clock
 711:Library/APM32F10x_StdPeriphDriver/src/apm32f10x_rcm.c ****  *                        @arg RCM_APB1_PERIPH_TMR3   : Enable TMR3 clock
 712:Library/APM32F10x_StdPeriphDriver/src/apm32f10x_rcm.c ****  *                        @arg RCM_APB1_PERIPH_TMR4   : Enable TMR4 clock
 713:Library/APM32F10x_StdPeriphDriver/src/apm32f10x_rcm.c ****  *                        @arg RCM_APB1_PERIPH_TMR5   : Enable TMR5 clock (Only for High-density de
 714:Library/APM32F10x_StdPeriphDriver/src/apm32f10x_rcm.c ****  *                        @arg RCM_APB1_PERIPH_TMR6   : Enable TMR6 clock (Only for High-density de
 715:Library/APM32F10x_StdPeriphDriver/src/apm32f10x_rcm.c ****  *                        @arg RCM_APB1_PERIPH_TMR7   : Enable TMR7 clock (Only for High-density de
 716:Library/APM32F10x_StdPeriphDriver/src/apm32f10x_rcm.c ****  *                        @arg RCM_APB1_PERIPH_WWDT   : Enable WWDT clock
 717:Library/APM32F10x_StdPeriphDriver/src/apm32f10x_rcm.c ****  *                        @arg RCM_APB1_PERIPH_SPI2   : Enable SPI2 clock
 718:Library/APM32F10x_StdPeriphDriver/src/apm32f10x_rcm.c ****  *                        @arg RCM_APB1_PERIPH_SPI3   : Enable SPI3 clock (Only for High-density de
 719:Library/APM32F10x_StdPeriphDriver/src/apm32f10x_rcm.c ****  *                        @arg RCM_APB1_PERIPH_USART2 : Enable USART2 clock
 720:Library/APM32F10x_StdPeriphDriver/src/apm32f10x_rcm.c ****  *                        @arg RCM_APB1_PERIPH_USART3 : Enable USART3 clock
 721:Library/APM32F10x_StdPeriphDriver/src/apm32f10x_rcm.c ****  *                        @arg RCM_APB1_PERIPH_UART4  : Enable UART4 clock (Only for High-density d
 722:Library/APM32F10x_StdPeriphDriver/src/apm32f10x_rcm.c ****  *                        @arg RCM_APB1_PERIPH_UART5  : Enable UART5 clock (Only for High-density d
 723:Library/APM32F10x_StdPeriphDriver/src/apm32f10x_rcm.c ****  *                        @arg RCM_APB1_PERIPH_I2C1   : Enable I2C1 clock
 724:Library/APM32F10x_StdPeriphDriver/src/apm32f10x_rcm.c ****  *                        @arg RCM_APB1_PERIPH_I2C2   : Enable I2C2 clock
 725:Library/APM32F10x_StdPeriphDriver/src/apm32f10x_rcm.c ****  *                        @arg RCM_APB1_PERIPH_USB    : Enable USB clock
 726:Library/APM32F10x_StdPeriphDriver/src/apm32f10x_rcm.c ****  *                        @arg RCM_APB1_PERIPH_CAN1   : Enable CAN1 clock
 727:Library/APM32F10x_StdPeriphDriver/src/apm32f10x_rcm.c ****  *                        @arg RCM_APB1_PERIPH_CAN2   : Enable CAN2 clock (only for APM32F103xC dev
 728:Library/APM32F10x_StdPeriphDriver/src/apm32f10x_rcm.c ****  *                        @arg RCM_APB1_PERIPH_BAKR   : Enable BAKR clock
ARM GAS  C:\Users\geehy\AppData\Local\Temp\ccYSLlwr.s 			page 37


 729:Library/APM32F10x_StdPeriphDriver/src/apm32f10x_rcm.c ****  *                        @arg RCM_APB1_PERIPH_PMU    : Enable PMU clock
 730:Library/APM32F10x_StdPeriphDriver/src/apm32f10x_rcm.c ****  *                        @arg RCM_APB1_PERIPH_DAC    : Enable DAC clock (Only for High-density dev
 731:Library/APM32F10x_StdPeriphDriver/src/apm32f10x_rcm.c ****  *
 732:Library/APM32F10x_StdPeriphDriver/src/apm32f10x_rcm.c ****  * @retval   None
 733:Library/APM32F10x_StdPeriphDriver/src/apm32f10x_rcm.c ****  */
 734:Library/APM32F10x_StdPeriphDriver/src/apm32f10x_rcm.c **** void RCM_EnableAPB1PeriphClock(uint32_t APB1Periph)
 735:Library/APM32F10x_StdPeriphDriver/src/apm32f10x_rcm.c **** {
 1364              		.loc 1 735 1 is_stmt 1 view -0
 1365              		.cfi_startproc
 1366              		@ args = 0, pretend = 0, frame = 0
 1367              		@ frame_needed = 0, uses_anonymous_args = 0
 1368              		@ link register save eliminated.
 736:Library/APM32F10x_StdPeriphDriver/src/apm32f10x_rcm.c ****     RCM->APB1CLKEN |= APB1Periph;
 1369              		.loc 1 736 5 view .LVU252
 1370              		.loc 1 736 20 is_stmt 0 view .LVU253
 1371 0000 024A     		ldr	r2, .L129
 1372 0002 D369     		ldr	r3, [r2, #28]
 1373 0004 0343     		orrs	r3, r3, r0
 1374 0006 D361     		str	r3, [r2, #28]
 737:Library/APM32F10x_StdPeriphDriver/src/apm32f10x_rcm.c **** }
 1375              		.loc 1 737 1 view .LVU254
 1376 0008 7047     		bx	lr
 1377              	.L130:
 1378 000a 00BF     		.align	2
 1379              	.L129:
 1380 000c 00100240 		.word	1073876992
 1381              		.cfi_endproc
 1382              	.LFE99:
 1384              		.section	.text.RCM_DisableAPB1PeriphClock,"ax",%progbits
 1385              		.align	1
 1386              		.global	RCM_DisableAPB1PeriphClock
 1387              		.syntax unified
 1388              		.thumb
 1389              		.thumb_func
 1391              	RCM_DisableAPB1PeriphClock:
 1392              	.LVL42:
 1393              	.LFB100:
 738:Library/APM32F10x_StdPeriphDriver/src/apm32f10x_rcm.c **** 
 739:Library/APM32F10x_StdPeriphDriver/src/apm32f10x_rcm.c **** /*!
 740:Library/APM32F10x_StdPeriphDriver/src/apm32f10x_rcm.c ****  * @brief    Disable the Low Speed APB (APB1) peripheral clock
 741:Library/APM32F10x_StdPeriphDriver/src/apm32f10x_rcm.c ****  *
 742:Library/APM32F10x_StdPeriphDriver/src/apm32f10x_rcm.c ****  * @param    APB1Periph : Disable specifies clock of the APB1 peripheral.
 743:Library/APM32F10x_StdPeriphDriver/src/apm32f10x_rcm.c ****  *                        This parameter can be any combination of the following values:
 744:Library/APM32F10x_StdPeriphDriver/src/apm32f10x_rcm.c ****  *                        @arg RCM_APB1_PERIPH_TMR2   : Disable TMR2 clock
 745:Library/APM32F10x_StdPeriphDriver/src/apm32f10x_rcm.c ****  *                        @arg RCM_APB1_PERIPH_TMR3   : Disable TMR3 clock
 746:Library/APM32F10x_StdPeriphDriver/src/apm32f10x_rcm.c ****  *                        @arg RCM_APB1_PERIPH_TMR4   : Disable TMR4 clock
 747:Library/APM32F10x_StdPeriphDriver/src/apm32f10x_rcm.c ****  *                        @arg RCM_APB1_PERIPH_TMR5   : Disable TMR5 clock (Only for High-density d
 748:Library/APM32F10x_StdPeriphDriver/src/apm32f10x_rcm.c ****  *                        @arg RCM_APB1_PERIPH_TMR6   : Disable TMR6 clock (Only for High-density d
 749:Library/APM32F10x_StdPeriphDriver/src/apm32f10x_rcm.c ****  *                        @arg RCM_APB1_PERIPH_TMR7   : Disable TMR7 clock (Only for High-density d
 750:Library/APM32F10x_StdPeriphDriver/src/apm32f10x_rcm.c ****  *                        @arg RCM_APB1_PERIPH_WWDT   : Disable WWDT clock
 751:Library/APM32F10x_StdPeriphDriver/src/apm32f10x_rcm.c ****  *                        @arg RCM_APB1_PERIPH_SPI2   : Disable SPI2 clock
 752:Library/APM32F10x_StdPeriphDriver/src/apm32f10x_rcm.c ****  *                        @arg RCM_APB1_PERIPH_SPI3   : Disable SPI3 clock (Only for High-density d
 753:Library/APM32F10x_StdPeriphDriver/src/apm32f10x_rcm.c ****  *                        @arg RCM_APB1_PERIPH_USART2 : Disable USART2 clock
 754:Library/APM32F10x_StdPeriphDriver/src/apm32f10x_rcm.c ****  *                        @arg RCM_APB1_PERIPH_USART3 : Disable USART3 clock
 755:Library/APM32F10x_StdPeriphDriver/src/apm32f10x_rcm.c ****  *                        @arg RCM_APB1_PERIPH_UART4  : Disable UART4 clock (Only for High-density 
 756:Library/APM32F10x_StdPeriphDriver/src/apm32f10x_rcm.c ****  *                        @arg RCM_APB1_PERIPH_UART5  : Disable UART5 clock (Only for High-density 
 757:Library/APM32F10x_StdPeriphDriver/src/apm32f10x_rcm.c ****  *                        @arg RCM_APB1_PERIPH_I2C1   : Disable I2C1 clock
ARM GAS  C:\Users\geehy\AppData\Local\Temp\ccYSLlwr.s 			page 38


 758:Library/APM32F10x_StdPeriphDriver/src/apm32f10x_rcm.c ****  *                        @arg RCM_APB1_PERIPH_I2C2   : Disable I2C2 clock
 759:Library/APM32F10x_StdPeriphDriver/src/apm32f10x_rcm.c ****  *                        @arg RCM_APB1_PERIPH_USB    : Disable USB clock
 760:Library/APM32F10x_StdPeriphDriver/src/apm32f10x_rcm.c ****  *                        @arg RCM_APB1_PERIPH_CAN1   : Disable CAN1 clock
 761:Library/APM32F10x_StdPeriphDriver/src/apm32f10x_rcm.c ****  *                        @arg RCM_APB1_PERIPH_CAN2   : Disable CAN2 clock (only for APM32F103xC de
 762:Library/APM32F10x_StdPeriphDriver/src/apm32f10x_rcm.c ****  *                        @arg RCM_APB1_PERIPH_BAKR   : Disable BAKR clock
 763:Library/APM32F10x_StdPeriphDriver/src/apm32f10x_rcm.c ****  *                        @arg RCM_APB1_PERIPH_PMU    : Disable PMU clock
 764:Library/APM32F10x_StdPeriphDriver/src/apm32f10x_rcm.c ****  *                        @arg RCM_APB1_PERIPH_DAC    : Disable DAC clock (Only for High-density de
 765:Library/APM32F10x_StdPeriphDriver/src/apm32f10x_rcm.c ****  *
 766:Library/APM32F10x_StdPeriphDriver/src/apm32f10x_rcm.c ****  * @retval   None
 767:Library/APM32F10x_StdPeriphDriver/src/apm32f10x_rcm.c ****  */
 768:Library/APM32F10x_StdPeriphDriver/src/apm32f10x_rcm.c **** void RCM_DisableAPB1PeriphClock(uint32_t APB1Periph)
 769:Library/APM32F10x_StdPeriphDriver/src/apm32f10x_rcm.c **** {
 1394              		.loc 1 769 1 is_stmt 1 view -0
 1395              		.cfi_startproc
 1396              		@ args = 0, pretend = 0, frame = 0
 1397              		@ frame_needed = 0, uses_anonymous_args = 0
 1398              		@ link register save eliminated.
 770:Library/APM32F10x_StdPeriphDriver/src/apm32f10x_rcm.c ****     RCM->APB1CLKEN &= (uint32_t)~APB1Periph;
 1399              		.loc 1 770 5 view .LVU256
 1400              		.loc 1 770 20 is_stmt 0 view .LVU257
 1401 0000 024A     		ldr	r2, .L132
 1402 0002 D369     		ldr	r3, [r2, #28]
 1403 0004 23EA0003 		bic	r3, r3, r0
 1404 0008 D361     		str	r3, [r2, #28]
 771:Library/APM32F10x_StdPeriphDriver/src/apm32f10x_rcm.c **** }
 1405              		.loc 1 771 1 view .LVU258
 1406 000a 7047     		bx	lr
 1407              	.L133:
 1408              		.align	2
 1409              	.L132:
 1410 000c 00100240 		.word	1073876992
 1411              		.cfi_endproc
 1412              	.LFE100:
 1414              		.section	.text.RCM_EnableAPB2PeriphReset,"ax",%progbits
 1415              		.align	1
 1416              		.global	RCM_EnableAPB2PeriphReset
 1417              		.syntax unified
 1418              		.thumb
 1419              		.thumb_func
 1421              	RCM_EnableAPB2PeriphReset:
 1422              	.LVL43:
 1423              	.LFB101:
 772:Library/APM32F10x_StdPeriphDriver/src/apm32f10x_rcm.c **** 
 773:Library/APM32F10x_StdPeriphDriver/src/apm32f10x_rcm.c **** /*!
 774:Library/APM32F10x_StdPeriphDriver/src/apm32f10x_rcm.c ****  * @brief    Enable High Speed APB (APB2) peripheral reset
 775:Library/APM32F10x_StdPeriphDriver/src/apm32f10x_rcm.c ****  *
 776:Library/APM32F10x_StdPeriphDriver/src/apm32f10x_rcm.c ****  * @param    APB2Periph : Enable specifies APB2 peripheral reset.
 777:Library/APM32F10x_StdPeriphDriver/src/apm32f10x_rcm.c ****  *                        This parameter can be any combination of the following values:
 778:Library/APM32F10x_StdPeriphDriver/src/apm32f10x_rcm.c ****  *                        @arg RCM_APB2_PERIPH_AFIO   : Enable AFIO reset
 779:Library/APM32F10x_StdPeriphDriver/src/apm32f10x_rcm.c ****  *                        @arg RCM_APB2_PERIPH_GPIOA  : Enable GPIOA reset
 780:Library/APM32F10x_StdPeriphDriver/src/apm32f10x_rcm.c ****  *                        @arg RCM_APB2_PERIPH_GPIOB  : Enable GPIOB reset
 781:Library/APM32F10x_StdPeriphDriver/src/apm32f10x_rcm.c ****  *                        @arg RCM_APB2_PERIPH_GPIOC  : Enable GPIOC reset
 782:Library/APM32F10x_StdPeriphDriver/src/apm32f10x_rcm.c ****  *                        @arg RCM_APB2_PERIPH_GPIOD  : Enable GPIOD reset
 783:Library/APM32F10x_StdPeriphDriver/src/apm32f10x_rcm.c ****  *                        @arg RCM_APB2_PERIPH_GPIOE  : Enable GPIOE reset
 784:Library/APM32F10x_StdPeriphDriver/src/apm32f10x_rcm.c ****  *                        @arg RCM_APB2_PERIPH_GPIOF  : Enable GPIOF reset (Only for High-density d
 785:Library/APM32F10x_StdPeriphDriver/src/apm32f10x_rcm.c ****  *                        @arg RCM_APB2_PERIPH_GPIOG  : Enable GPIOG reset (Only for High-density d
 786:Library/APM32F10x_StdPeriphDriver/src/apm32f10x_rcm.c ****  *                        @arg RCM_APB2_PERIPH_ADC1   : Enable ADC1 reset
ARM GAS  C:\Users\geehy\AppData\Local\Temp\ccYSLlwr.s 			page 39


 787:Library/APM32F10x_StdPeriphDriver/src/apm32f10x_rcm.c ****  *                        @arg RCM_APB2_PERIPH_ADC2   : Enable ADC2 reset
 788:Library/APM32F10x_StdPeriphDriver/src/apm32f10x_rcm.c ****  *                        @arg RCM_APB2_PERIPH_TMR1   : Enable TMR1 reset
 789:Library/APM32F10x_StdPeriphDriver/src/apm32f10x_rcm.c ****  *                        @arg RCM_APB2_PERIPH_SPI1   : Enable SPI1 reset
 790:Library/APM32F10x_StdPeriphDriver/src/apm32f10x_rcm.c ****  *                        @arg RCM_APB2_PERIPH_TMR8   : Enable TMR8 reset (Only for High-density de
 791:Library/APM32F10x_StdPeriphDriver/src/apm32f10x_rcm.c ****  *                        @arg RCM_APB2_PERIPH_USART1 : Enable USART1 reset
 792:Library/APM32F10x_StdPeriphDriver/src/apm32f10x_rcm.c ****  *                        @arg RCM_APB2_PERIPH_ADC3   : Enable ADC3 reset (Only for High-density de
 793:Library/APM32F10x_StdPeriphDriver/src/apm32f10x_rcm.c ****  *
 794:Library/APM32F10x_StdPeriphDriver/src/apm32f10x_rcm.c ****  * @retval   None
 795:Library/APM32F10x_StdPeriphDriver/src/apm32f10x_rcm.c ****  */
 796:Library/APM32F10x_StdPeriphDriver/src/apm32f10x_rcm.c **** void RCM_EnableAPB2PeriphReset(uint32_t APB2Periph)
 797:Library/APM32F10x_StdPeriphDriver/src/apm32f10x_rcm.c **** {
 1424              		.loc 1 797 1 is_stmt 1 view -0
 1425              		.cfi_startproc
 1426              		@ args = 0, pretend = 0, frame = 0
 1427              		@ frame_needed = 0, uses_anonymous_args = 0
 1428              		@ link register save eliminated.
 798:Library/APM32F10x_StdPeriphDriver/src/apm32f10x_rcm.c ****     RCM->APB2RST |= APB2Periph;
 1429              		.loc 1 798 5 view .LVU260
 1430              		.loc 1 798 18 is_stmt 0 view .LVU261
 1431 0000 024A     		ldr	r2, .L135
 1432 0002 D368     		ldr	r3, [r2, #12]
 1433 0004 0343     		orrs	r3, r3, r0
 1434 0006 D360     		str	r3, [r2, #12]
 799:Library/APM32F10x_StdPeriphDriver/src/apm32f10x_rcm.c **** }
 1435              		.loc 1 799 1 view .LVU262
 1436 0008 7047     		bx	lr
 1437              	.L136:
 1438 000a 00BF     		.align	2
 1439              	.L135:
 1440 000c 00100240 		.word	1073876992
 1441              		.cfi_endproc
 1442              	.LFE101:
 1444              		.section	.text.RCM_DisableAPB2PeriphReset,"ax",%progbits
 1445              		.align	1
 1446              		.global	RCM_DisableAPB2PeriphReset
 1447              		.syntax unified
 1448              		.thumb
 1449              		.thumb_func
 1451              	RCM_DisableAPB2PeriphReset:
 1452              	.LVL44:
 1453              	.LFB102:
 800:Library/APM32F10x_StdPeriphDriver/src/apm32f10x_rcm.c **** 
 801:Library/APM32F10x_StdPeriphDriver/src/apm32f10x_rcm.c **** /*!
 802:Library/APM32F10x_StdPeriphDriver/src/apm32f10x_rcm.c ****  * @brief    Disable High Speed APB (APB2) peripheral reset
 803:Library/APM32F10x_StdPeriphDriver/src/apm32f10x_rcm.c ****  *
 804:Library/APM32F10x_StdPeriphDriver/src/apm32f10x_rcm.c ****  * @param    APB2Periph : Disable specifies APB2 peripheral reset.
 805:Library/APM32F10x_StdPeriphDriver/src/apm32f10x_rcm.c ****  *                        This parameter can be any combination of the following values:
 806:Library/APM32F10x_StdPeriphDriver/src/apm32f10x_rcm.c ****  *                        @arg RCM_APB2_PERIPH_AFIO   : Disable AFIO reset
 807:Library/APM32F10x_StdPeriphDriver/src/apm32f10x_rcm.c ****  *                        @arg RCM_APB2_PERIPH_GPIOA  : Disable GPIOA reset
 808:Library/APM32F10x_StdPeriphDriver/src/apm32f10x_rcm.c ****  *                        @arg RCM_APB2_PERIPH_GPIOB  : Disable GPIOB reset
 809:Library/APM32F10x_StdPeriphDriver/src/apm32f10x_rcm.c ****  *                        @arg RCM_APB2_PERIPH_GPIOC  : Disable GPIOC reset
 810:Library/APM32F10x_StdPeriphDriver/src/apm32f10x_rcm.c ****  *                        @arg RCM_APB2_PERIPH_GPIOD  : Disable GPIOD reset
 811:Library/APM32F10x_StdPeriphDriver/src/apm32f10x_rcm.c ****  *                        @arg RCM_APB2_PERIPH_GPIOE  : Disable GPIOE reset
 812:Library/APM32F10x_StdPeriphDriver/src/apm32f10x_rcm.c ****  *                        @arg RCM_APB2_PERIPH_GPIOF  : Disable GPIOF reset (Only for High-density 
 813:Library/APM32F10x_StdPeriphDriver/src/apm32f10x_rcm.c ****  *                        @arg RCM_APB2_PERIPH_GPIOG  : Disable GPIOG reset (Only for High-density 
 814:Library/APM32F10x_StdPeriphDriver/src/apm32f10x_rcm.c ****  *                        @arg RCM_APB2_PERIPH_ADC1   : Disable ADC1 reset
 815:Library/APM32F10x_StdPeriphDriver/src/apm32f10x_rcm.c ****  *                        @arg RCM_APB2_PERIPH_ADC2   : Disable ADC2 reset
ARM GAS  C:\Users\geehy\AppData\Local\Temp\ccYSLlwr.s 			page 40


 816:Library/APM32F10x_StdPeriphDriver/src/apm32f10x_rcm.c ****  *                        @arg RCM_APB2_PERIPH_TMR1   : Disable TMR1 reset
 817:Library/APM32F10x_StdPeriphDriver/src/apm32f10x_rcm.c ****  *                        @arg RCM_APB2_PERIPH_SPI1   : Disable SPI1 reset
 818:Library/APM32F10x_StdPeriphDriver/src/apm32f10x_rcm.c ****  *                        @arg RCM_APB2_PERIPH_TMR8   : Disable TMR8 reset (Only for High-density d
 819:Library/APM32F10x_StdPeriphDriver/src/apm32f10x_rcm.c ****  *                        @arg RCM_APB2_PERIPH_USART1 : Disable USART1 reset
 820:Library/APM32F10x_StdPeriphDriver/src/apm32f10x_rcm.c ****  *                        @arg RCM_APB2_PERIPH_ADC3   : Disable ADC3 reset (Only for High-density d
 821:Library/APM32F10x_StdPeriphDriver/src/apm32f10x_rcm.c ****  *
 822:Library/APM32F10x_StdPeriphDriver/src/apm32f10x_rcm.c ****  * @retval   None
 823:Library/APM32F10x_StdPeriphDriver/src/apm32f10x_rcm.c ****  */
 824:Library/APM32F10x_StdPeriphDriver/src/apm32f10x_rcm.c **** void RCM_DisableAPB2PeriphReset(uint32_t APB2Periph)
 825:Library/APM32F10x_StdPeriphDriver/src/apm32f10x_rcm.c **** {
 1454              		.loc 1 825 1 is_stmt 1 view -0
 1455              		.cfi_startproc
 1456              		@ args = 0, pretend = 0, frame = 0
 1457              		@ frame_needed = 0, uses_anonymous_args = 0
 1458              		@ link register save eliminated.
 826:Library/APM32F10x_StdPeriphDriver/src/apm32f10x_rcm.c ****     RCM->APB2RST &= (uint32_t)~APB2Periph;
 1459              		.loc 1 826 5 view .LVU264
 1460              		.loc 1 826 18 is_stmt 0 view .LVU265
 1461 0000 024A     		ldr	r2, .L138
 1462 0002 D368     		ldr	r3, [r2, #12]
 1463 0004 23EA0003 		bic	r3, r3, r0
 1464 0008 D360     		str	r3, [r2, #12]
 827:Library/APM32F10x_StdPeriphDriver/src/apm32f10x_rcm.c **** }
 1465              		.loc 1 827 1 view .LVU266
 1466 000a 7047     		bx	lr
 1467              	.L139:
 1468              		.align	2
 1469              	.L138:
 1470 000c 00100240 		.word	1073876992
 1471              		.cfi_endproc
 1472              	.LFE102:
 1474              		.section	.text.RCM_EnableAPB1PeriphReset,"ax",%progbits
 1475              		.align	1
 1476              		.global	RCM_EnableAPB1PeriphReset
 1477              		.syntax unified
 1478              		.thumb
 1479              		.thumb_func
 1481              	RCM_EnableAPB1PeriphReset:
 1482              	.LVL45:
 1483              	.LFB103:
 828:Library/APM32F10x_StdPeriphDriver/src/apm32f10x_rcm.c **** 
 829:Library/APM32F10x_StdPeriphDriver/src/apm32f10x_rcm.c **** /*!
 830:Library/APM32F10x_StdPeriphDriver/src/apm32f10x_rcm.c ****  * @brief    Enable Low Speed APB (APB1) peripheral reset
 831:Library/APM32F10x_StdPeriphDriver/src/apm32f10x_rcm.c ****  *
 832:Library/APM32F10x_StdPeriphDriver/src/apm32f10x_rcm.c ****  * @param    APB1Periph : Enable specifies APB1 peripheral reset.
 833:Library/APM32F10x_StdPeriphDriver/src/apm32f10x_rcm.c ****  *                        This parameter can be any combination of the following values:
 834:Library/APM32F10x_StdPeriphDriver/src/apm32f10x_rcm.c ****  *                        @arg RCM_APB1_PERIPH_TMR2   : Enable TMR2 reset
 835:Library/APM32F10x_StdPeriphDriver/src/apm32f10x_rcm.c ****  *                        @arg RCM_APB1_PERIPH_TMR3   : Enable TMR3 reset
 836:Library/APM32F10x_StdPeriphDriver/src/apm32f10x_rcm.c ****  *                        @arg RCM_APB1_PERIPH_TMR4   : Enable TMR4 reset
 837:Library/APM32F10x_StdPeriphDriver/src/apm32f10x_rcm.c ****  *                        @arg RCM_APB1_PERIPH_TMR5   : Enable TMR5 reset (Only for High-density de
 838:Library/APM32F10x_StdPeriphDriver/src/apm32f10x_rcm.c ****  *                        @arg RCM_APB1_PERIPH_TMR6   : Enable TMR6 reset (Only for High-density de
 839:Library/APM32F10x_StdPeriphDriver/src/apm32f10x_rcm.c ****  *                        @arg RCM_APB1_PERIPH_TMR7   : Enable TMR7 reset (Only for High-density de
 840:Library/APM32F10x_StdPeriphDriver/src/apm32f10x_rcm.c ****  *                        @arg RCM_APB1_PERIPH_WWDT   : Enable WWDT reset
 841:Library/APM32F10x_StdPeriphDriver/src/apm32f10x_rcm.c ****  *                        @arg RCM_APB1_PERIPH_SPI2   : Enable SPI2 reset
 842:Library/APM32F10x_StdPeriphDriver/src/apm32f10x_rcm.c ****  *                        @arg RCM_APB1_PERIPH_SPI3   : Enable SPI3 reset (Only for High-density de
 843:Library/APM32F10x_StdPeriphDriver/src/apm32f10x_rcm.c ****  *                        @arg RCM_APB1_PERIPH_USART2 : Enable USART2 reset
 844:Library/APM32F10x_StdPeriphDriver/src/apm32f10x_rcm.c ****  *                        @arg RCM_APB1_PERIPH_USART3 : Enable USART3 reset
ARM GAS  C:\Users\geehy\AppData\Local\Temp\ccYSLlwr.s 			page 41


 845:Library/APM32F10x_StdPeriphDriver/src/apm32f10x_rcm.c ****  *                        @arg RCM_APB1_PERIPH_UART4  : Enable UART4 reset (Only for High-density d
 846:Library/APM32F10x_StdPeriphDriver/src/apm32f10x_rcm.c ****  *                        @arg RCM_APB1_PERIPH_UART5  : Enable UART5 reset (Only for High-density d
 847:Library/APM32F10x_StdPeriphDriver/src/apm32f10x_rcm.c ****  *                        @arg RCM_APB1_PERIPH_I2C1   : Enable I2C1 reset
 848:Library/APM32F10x_StdPeriphDriver/src/apm32f10x_rcm.c ****  *                        @arg RCM_APB1_PERIPH_I2C2   : Enable I2C2 reset
 849:Library/APM32F10x_StdPeriphDriver/src/apm32f10x_rcm.c ****  *                        @arg RCM_APB1_PERIPH_USB    : Enable USB reset
 850:Library/APM32F10x_StdPeriphDriver/src/apm32f10x_rcm.c ****  *                        @arg RCM_APB1_PERIPH_CAN1   : Enable CAN1 reset
 851:Library/APM32F10x_StdPeriphDriver/src/apm32f10x_rcm.c ****  *                        @arg RCM_APB1_PERIPH_CAN2   : Enable CAN2 reset (only for APM32F103xC dev
 852:Library/APM32F10x_StdPeriphDriver/src/apm32f10x_rcm.c ****  *                        @arg RCM_APB1_PERIPH_BAKR   : Enable BAKR reset
 853:Library/APM32F10x_StdPeriphDriver/src/apm32f10x_rcm.c ****  *                        @arg RCM_APB1_PERIPH_PMU    : Enable PMU reset
 854:Library/APM32F10x_StdPeriphDriver/src/apm32f10x_rcm.c ****  *                        @arg RCM_APB1_PERIPH_DAC    : Enable DAC reset
 855:Library/APM32F10x_StdPeriphDriver/src/apm32f10x_rcm.c ****  *
 856:Library/APM32F10x_StdPeriphDriver/src/apm32f10x_rcm.c ****  * @retval   None
 857:Library/APM32F10x_StdPeriphDriver/src/apm32f10x_rcm.c ****  */
 858:Library/APM32F10x_StdPeriphDriver/src/apm32f10x_rcm.c **** void RCM_EnableAPB1PeriphReset(uint32_t APB1Periph)
 859:Library/APM32F10x_StdPeriphDriver/src/apm32f10x_rcm.c **** {
 1484              		.loc 1 859 1 is_stmt 1 view -0
 1485              		.cfi_startproc
 1486              		@ args = 0, pretend = 0, frame = 0
 1487              		@ frame_needed = 0, uses_anonymous_args = 0
 1488              		@ link register save eliminated.
 860:Library/APM32F10x_StdPeriphDriver/src/apm32f10x_rcm.c ****     RCM->APB1RST |= APB1Periph;
 1489              		.loc 1 860 5 view .LVU268
 1490              		.loc 1 860 18 is_stmt 0 view .LVU269
 1491 0000 024A     		ldr	r2, .L141
 1492 0002 1369     		ldr	r3, [r2, #16]
 1493 0004 0343     		orrs	r3, r3, r0
 1494 0006 1361     		str	r3, [r2, #16]
 861:Library/APM32F10x_StdPeriphDriver/src/apm32f10x_rcm.c **** }
 1495              		.loc 1 861 1 view .LVU270
 1496 0008 7047     		bx	lr
 1497              	.L142:
 1498 000a 00BF     		.align	2
 1499              	.L141:
 1500 000c 00100240 		.word	1073876992
 1501              		.cfi_endproc
 1502              	.LFE103:
 1504              		.section	.text.RCM_DisableAPB1PeriphReset,"ax",%progbits
 1505              		.align	1
 1506              		.global	RCM_DisableAPB1PeriphReset
 1507              		.syntax unified
 1508              		.thumb
 1509              		.thumb_func
 1511              	RCM_DisableAPB1PeriphReset:
 1512              	.LVL46:
 1513              	.LFB104:
 862:Library/APM32F10x_StdPeriphDriver/src/apm32f10x_rcm.c **** 
 863:Library/APM32F10x_StdPeriphDriver/src/apm32f10x_rcm.c **** /*!
 864:Library/APM32F10x_StdPeriphDriver/src/apm32f10x_rcm.c ****  * @brief    Disable Low Speed APB (APB1) peripheral reset
 865:Library/APM32F10x_StdPeriphDriver/src/apm32f10x_rcm.c ****  *
 866:Library/APM32F10x_StdPeriphDriver/src/apm32f10x_rcm.c ****  * @param    APB1Periph : Disable specifies APB1 peripheral reset.
 867:Library/APM32F10x_StdPeriphDriver/src/apm32f10x_rcm.c ****  *                        This parameter can be any combination of the following values:
 868:Library/APM32F10x_StdPeriphDriver/src/apm32f10x_rcm.c ****  *                        @arg RCM_APB1_PERIPH_TMR2   : Disable TMR2 reset
 869:Library/APM32F10x_StdPeriphDriver/src/apm32f10x_rcm.c ****  *                        @arg RCM_APB1_PERIPH_TMR3   : Disable TMR3 reset
 870:Library/APM32F10x_StdPeriphDriver/src/apm32f10x_rcm.c ****  *                        @arg RCM_APB1_PERIPH_TMR4   : Disable TMR4 reset
 871:Library/APM32F10x_StdPeriphDriver/src/apm32f10x_rcm.c ****  *                        @arg RCM_APB1_PERIPH_TMR5   : Disable TMR5 reset (Only for High-density d
 872:Library/APM32F10x_StdPeriphDriver/src/apm32f10x_rcm.c ****  *                        @arg RCM_APB1_PERIPH_TMR6   : Disable TMR6 reset (Only for High-density d
 873:Library/APM32F10x_StdPeriphDriver/src/apm32f10x_rcm.c ****  *                        @arg RCM_APB1_PERIPH_TMR7   : Disable TMR7 reset (Only for High-density d
ARM GAS  C:\Users\geehy\AppData\Local\Temp\ccYSLlwr.s 			page 42


 874:Library/APM32F10x_StdPeriphDriver/src/apm32f10x_rcm.c ****  *                        @arg RCM_APB1_PERIPH_WWDT   : Disable WWDT reset
 875:Library/APM32F10x_StdPeriphDriver/src/apm32f10x_rcm.c ****  *                        @arg RCM_APB1_PERIPH_SPI2   : Disable SPI2 reset
 876:Library/APM32F10x_StdPeriphDriver/src/apm32f10x_rcm.c ****  *                        @arg RCM_APB1_PERIPH_SPI3   : Disable SPI3 reset (Only for High-density d
 877:Library/APM32F10x_StdPeriphDriver/src/apm32f10x_rcm.c ****  *                        @arg RCM_APB1_PERIPH_USART2 : Disable USART2 reset
 878:Library/APM32F10x_StdPeriphDriver/src/apm32f10x_rcm.c ****  *                        @arg RCM_APB1_PERIPH_USART3 : Disable USART3 reset
 879:Library/APM32F10x_StdPeriphDriver/src/apm32f10x_rcm.c ****  *                        @arg RCM_APB1_PERIPH_UART4  : Disable UART4 reset (Only for High-density 
 880:Library/APM32F10x_StdPeriphDriver/src/apm32f10x_rcm.c ****  *                        @arg RCM_APB1_PERIPH_UART5  : Disable UART5 reset (Only for High-density 
 881:Library/APM32F10x_StdPeriphDriver/src/apm32f10x_rcm.c ****  *                        @arg RCM_APB1_PERIPH_I2C1   : Disable I2C1 reset
 882:Library/APM32F10x_StdPeriphDriver/src/apm32f10x_rcm.c ****  *                        @arg RCM_APB1_PERIPH_I2C2   : Disable I2C2 reset
 883:Library/APM32F10x_StdPeriphDriver/src/apm32f10x_rcm.c ****  *                        @arg RCM_APB1_PERIPH_USB    : Disable USB reset
 884:Library/APM32F10x_StdPeriphDriver/src/apm32f10x_rcm.c ****  *                        @arg RCM_APB1_PERIPH_CAN1   : Disable CAN1 reset
 885:Library/APM32F10x_StdPeriphDriver/src/apm32f10x_rcm.c ****  *                        @arg RCM_APB1_PERIPH_CAN2   : Disable CAN2 reset (only for APM32F103xC de
 886:Library/APM32F10x_StdPeriphDriver/src/apm32f10x_rcm.c ****  *                        @arg RCM_APB1_PERIPH_BAKR   : Disable BAKR reset
 887:Library/APM32F10x_StdPeriphDriver/src/apm32f10x_rcm.c ****  *                        @arg RCM_APB1_PERIPH_PMU    : Disable PMU reset
 888:Library/APM32F10x_StdPeriphDriver/src/apm32f10x_rcm.c ****  *                        @arg RCM_APB1_PERIPH_DAC    : Disable DAC reset
 889:Library/APM32F10x_StdPeriphDriver/src/apm32f10x_rcm.c ****  *
 890:Library/APM32F10x_StdPeriphDriver/src/apm32f10x_rcm.c ****  * @retval   None
 891:Library/APM32F10x_StdPeriphDriver/src/apm32f10x_rcm.c ****  */
 892:Library/APM32F10x_StdPeriphDriver/src/apm32f10x_rcm.c **** void RCM_DisableAPB1PeriphReset(uint32_t APB1Periph)
 893:Library/APM32F10x_StdPeriphDriver/src/apm32f10x_rcm.c **** {
 1514              		.loc 1 893 1 is_stmt 1 view -0
 1515              		.cfi_startproc
 1516              		@ args = 0, pretend = 0, frame = 0
 1517              		@ frame_needed = 0, uses_anonymous_args = 0
 1518              		@ link register save eliminated.
 894:Library/APM32F10x_StdPeriphDriver/src/apm32f10x_rcm.c ****     RCM->APB1RST &= (uint32_t)~APB1Periph;
 1519              		.loc 1 894 5 view .LVU272
 1520              		.loc 1 894 18 is_stmt 0 view .LVU273
 1521 0000 024A     		ldr	r2, .L144
 1522 0002 1369     		ldr	r3, [r2, #16]
 1523 0004 23EA0003 		bic	r3, r3, r0
 1524 0008 1361     		str	r3, [r2, #16]
 895:Library/APM32F10x_StdPeriphDriver/src/apm32f10x_rcm.c **** }
 1525              		.loc 1 895 1 view .LVU274
 1526 000a 7047     		bx	lr
 1527              	.L145:
 1528              		.align	2
 1529              	.L144:
 1530 000c 00100240 		.word	1073876992
 1531              		.cfi_endproc
 1532              	.LFE104:
 1534              		.section	.text.RCM_EnableBackupReset,"ax",%progbits
 1535              		.align	1
 1536              		.global	RCM_EnableBackupReset
 1537              		.syntax unified
 1538              		.thumb
 1539              		.thumb_func
 1541              	RCM_EnableBackupReset:
 1542              	.LFB105:
 896:Library/APM32F10x_StdPeriphDriver/src/apm32f10x_rcm.c **** 
 897:Library/APM32F10x_StdPeriphDriver/src/apm32f10x_rcm.c **** /*!
 898:Library/APM32F10x_StdPeriphDriver/src/apm32f10x_rcm.c ****  * @brief     Enable the Backup domain reset
 899:Library/APM32F10x_StdPeriphDriver/src/apm32f10x_rcm.c ****  *
 900:Library/APM32F10x_StdPeriphDriver/src/apm32f10x_rcm.c ****  * @param     None
 901:Library/APM32F10x_StdPeriphDriver/src/apm32f10x_rcm.c ****  *
 902:Library/APM32F10x_StdPeriphDriver/src/apm32f10x_rcm.c ****  * @retval    None
 903:Library/APM32F10x_StdPeriphDriver/src/apm32f10x_rcm.c ****  *
ARM GAS  C:\Users\geehy\AppData\Local\Temp\ccYSLlwr.s 			page 43


 904:Library/APM32F10x_StdPeriphDriver/src/apm32f10x_rcm.c ****  */
 905:Library/APM32F10x_StdPeriphDriver/src/apm32f10x_rcm.c **** void RCM_EnableBackupReset(void)
 906:Library/APM32F10x_StdPeriphDriver/src/apm32f10x_rcm.c **** {
 1543              		.loc 1 906 1 is_stmt 1 view -0
 1544              		.cfi_startproc
 1545              		@ args = 0, pretend = 0, frame = 0
 1546              		@ frame_needed = 0, uses_anonymous_args = 0
 1547              		@ link register save eliminated.
 907:Library/APM32F10x_StdPeriphDriver/src/apm32f10x_rcm.c ****     RCM->BDCTRL_B.BDRST = BIT_SET;
 1548              		.loc 1 907 5 view .LVU276
 1549              		.loc 1 907 25 is_stmt 0 view .LVU277
 1550 0000 024A     		ldr	r2, .L147
 1551 0002 136A     		ldr	r3, [r2, #32]
 1552 0004 43F48033 		orr	r3, r3, #65536
 1553 0008 1362     		str	r3, [r2, #32]
 908:Library/APM32F10x_StdPeriphDriver/src/apm32f10x_rcm.c **** }
 1554              		.loc 1 908 1 view .LVU278
 1555 000a 7047     		bx	lr
 1556              	.L148:
 1557              		.align	2
 1558              	.L147:
 1559 000c 00100240 		.word	1073876992
 1560              		.cfi_endproc
 1561              	.LFE105:
 1563              		.section	.text.RCM_DisableBackupReset,"ax",%progbits
 1564              		.align	1
 1565              		.global	RCM_DisableBackupReset
 1566              		.syntax unified
 1567              		.thumb
 1568              		.thumb_func
 1570              	RCM_DisableBackupReset:
 1571              	.LFB106:
 909:Library/APM32F10x_StdPeriphDriver/src/apm32f10x_rcm.c **** 
 910:Library/APM32F10x_StdPeriphDriver/src/apm32f10x_rcm.c **** /*!
 911:Library/APM32F10x_StdPeriphDriver/src/apm32f10x_rcm.c ****  * @brief     Disable the Backup domain reset
 912:Library/APM32F10x_StdPeriphDriver/src/apm32f10x_rcm.c ****  *
 913:Library/APM32F10x_StdPeriphDriver/src/apm32f10x_rcm.c ****  * @param     None
 914:Library/APM32F10x_StdPeriphDriver/src/apm32f10x_rcm.c ****  *
 915:Library/APM32F10x_StdPeriphDriver/src/apm32f10x_rcm.c ****  * @retval    None
 916:Library/APM32F10x_StdPeriphDriver/src/apm32f10x_rcm.c ****  */
 917:Library/APM32F10x_StdPeriphDriver/src/apm32f10x_rcm.c **** void RCM_DisableBackupReset(void)
 918:Library/APM32F10x_StdPeriphDriver/src/apm32f10x_rcm.c **** {
 1572              		.loc 1 918 1 is_stmt 1 view -0
 1573              		.cfi_startproc
 1574              		@ args = 0, pretend = 0, frame = 0
 1575              		@ frame_needed = 0, uses_anonymous_args = 0
 1576              		@ link register save eliminated.
 919:Library/APM32F10x_StdPeriphDriver/src/apm32f10x_rcm.c ****     RCM->BDCTRL_B.BDRST = BIT_RESET;
 1577              		.loc 1 919 5 view .LVU280
 1578              		.loc 1 919 25 is_stmt 0 view .LVU281
 1579 0000 024B     		ldr	r3, .L150
 1580 0002 1A6A     		ldr	r2, [r3, #32]
 1581 0004 6FF31042 		bfc	r2, #16, #1
 1582 0008 1A62     		str	r2, [r3, #32]
 920:Library/APM32F10x_StdPeriphDriver/src/apm32f10x_rcm.c **** }
 1583              		.loc 1 920 1 view .LVU282
 1584 000a 7047     		bx	lr
ARM GAS  C:\Users\geehy\AppData\Local\Temp\ccYSLlwr.s 			page 44


 1585              	.L151:
 1586              		.align	2
 1587              	.L150:
 1588 000c 00100240 		.word	1073876992
 1589              		.cfi_endproc
 1590              	.LFE106:
 1592              		.section	.text.RCM_EnableInterrupt,"ax",%progbits
 1593              		.align	1
 1594              		.global	RCM_EnableInterrupt
 1595              		.syntax unified
 1596              		.thumb
 1597              		.thumb_func
 1599              	RCM_EnableInterrupt:
 1600              	.LVL47:
 1601              	.LFB107:
 921:Library/APM32F10x_StdPeriphDriver/src/apm32f10x_rcm.c **** 
 922:Library/APM32F10x_StdPeriphDriver/src/apm32f10x_rcm.c **** /*!
 923:Library/APM32F10x_StdPeriphDriver/src/apm32f10x_rcm.c ****  * @brief     Enable RCM interrupts
 924:Library/APM32F10x_StdPeriphDriver/src/apm32f10x_rcm.c ****  *
 925:Library/APM32F10x_StdPeriphDriver/src/apm32f10x_rcm.c ****  * @param     interrupt : Enable specifies RCM interrupt sources.
 926:Library/APM32F10x_StdPeriphDriver/src/apm32f10x_rcm.c ****  *                        This parameter can be any combination of the following values:
 927:Library/APM32F10x_StdPeriphDriver/src/apm32f10x_rcm.c ****  *                        @arg RCM_INT_LSIRDY : LSI ready interrupt
 928:Library/APM32F10x_StdPeriphDriver/src/apm32f10x_rcm.c ****  *                        @arg RCM_INT_LSERDY : LSE ready interrupt
 929:Library/APM32F10x_StdPeriphDriver/src/apm32f10x_rcm.c ****  *                        @arg RCM_INT_HSIRDY : HSI ready interrupt
 930:Library/APM32F10x_StdPeriphDriver/src/apm32f10x_rcm.c ****  *                        @arg RCM_INT_HSERDY : HSE ready interrupt
 931:Library/APM32F10x_StdPeriphDriver/src/apm32f10x_rcm.c ****  *                        @arg RCM_INT_PLLRDY : PLL ready interrupt
 932:Library/APM32F10x_StdPeriphDriver/src/apm32f10x_rcm.c ****  *
 933:Library/APM32F10x_StdPeriphDriver/src/apm32f10x_rcm.c ****  * @retval    None
 934:Library/APM32F10x_StdPeriphDriver/src/apm32f10x_rcm.c ****  */
 935:Library/APM32F10x_StdPeriphDriver/src/apm32f10x_rcm.c **** void RCM_EnableInterrupt(uint32_t interrupt)
 936:Library/APM32F10x_StdPeriphDriver/src/apm32f10x_rcm.c **** {
 1602              		.loc 1 936 1 is_stmt 1 view -0
 1603              		.cfi_startproc
 1604              		@ args = 0, pretend = 0, frame = 0
 1605              		@ frame_needed = 0, uses_anonymous_args = 0
 1606              		@ link register save eliminated.
 937:Library/APM32F10x_StdPeriphDriver/src/apm32f10x_rcm.c ****     uint32_t temp;
 1607              		.loc 1 937 5 view .LVU284
 938:Library/APM32F10x_StdPeriphDriver/src/apm32f10x_rcm.c **** 
 939:Library/APM32F10x_StdPeriphDriver/src/apm32f10x_rcm.c ****     temp = interrupt << 8;
 1608              		.loc 1 939 5 view .LVU285
 940:Library/APM32F10x_StdPeriphDriver/src/apm32f10x_rcm.c **** 
 941:Library/APM32F10x_StdPeriphDriver/src/apm32f10x_rcm.c ****     RCM->INT |= temp;
 1609              		.loc 1 941 5 view .LVU286
 1610              		.loc 1 941 14 is_stmt 0 view .LVU287
 1611 0000 024A     		ldr	r2, .L153
 1612 0002 9368     		ldr	r3, [r2, #8]
 1613 0004 43EA0023 		orr	r3, r3, r0, lsl #8
 1614 0008 9360     		str	r3, [r2, #8]
 942:Library/APM32F10x_StdPeriphDriver/src/apm32f10x_rcm.c **** }
 1615              		.loc 1 942 1 view .LVU288
 1616 000a 7047     		bx	lr
 1617              	.L154:
 1618              		.align	2
 1619              	.L153:
 1620 000c 00100240 		.word	1073876992
 1621              		.cfi_endproc
ARM GAS  C:\Users\geehy\AppData\Local\Temp\ccYSLlwr.s 			page 45


 1622              	.LFE107:
 1624              		.section	.text.RCM_DisableInterrupt,"ax",%progbits
 1625              		.align	1
 1626              		.global	RCM_DisableInterrupt
 1627              		.syntax unified
 1628              		.thumb
 1629              		.thumb_func
 1631              	RCM_DisableInterrupt:
 1632              	.LVL48:
 1633              	.LFB108:
 943:Library/APM32F10x_StdPeriphDriver/src/apm32f10x_rcm.c **** 
 944:Library/APM32F10x_StdPeriphDriver/src/apm32f10x_rcm.c **** /*!
 945:Library/APM32F10x_StdPeriphDriver/src/apm32f10x_rcm.c ****  * @brief     Disable RCM interrupts
 946:Library/APM32F10x_StdPeriphDriver/src/apm32f10x_rcm.c ****  *
 947:Library/APM32F10x_StdPeriphDriver/src/apm32f10x_rcm.c ****  * @param     interrupt : Disable specifies RCM interrupt sources.
 948:Library/APM32F10x_StdPeriphDriver/src/apm32f10x_rcm.c ****  *                        This parameter can be any combination of the following values:
 949:Library/APM32F10x_StdPeriphDriver/src/apm32f10x_rcm.c ****  *                        @arg RCM_INT_LSIRDY : LSI ready interrupt
 950:Library/APM32F10x_StdPeriphDriver/src/apm32f10x_rcm.c ****  *                        @arg RCM_INT_LSERDY : LSE ready interrupt
 951:Library/APM32F10x_StdPeriphDriver/src/apm32f10x_rcm.c ****  *                        @arg RCM_INT_HSIRDY : HSI ready interrupt
 952:Library/APM32F10x_StdPeriphDriver/src/apm32f10x_rcm.c ****  *                        @arg RCM_INT_HSERDY : HSE ready interrupt
 953:Library/APM32F10x_StdPeriphDriver/src/apm32f10x_rcm.c ****  *                        @arg RCM_INT_PLLRDY : PLL ready interrupt
 954:Library/APM32F10x_StdPeriphDriver/src/apm32f10x_rcm.c ****  *
 955:Library/APM32F10x_StdPeriphDriver/src/apm32f10x_rcm.c ****  * @retval    None
 956:Library/APM32F10x_StdPeriphDriver/src/apm32f10x_rcm.c ****  */
 957:Library/APM32F10x_StdPeriphDriver/src/apm32f10x_rcm.c **** void RCM_DisableInterrupt(uint32_t interrupt)
 958:Library/APM32F10x_StdPeriphDriver/src/apm32f10x_rcm.c **** {
 1634              		.loc 1 958 1 is_stmt 1 view -0
 1635              		.cfi_startproc
 1636              		@ args = 0, pretend = 0, frame = 0
 1637              		@ frame_needed = 0, uses_anonymous_args = 0
 1638              		@ link register save eliminated.
 959:Library/APM32F10x_StdPeriphDriver/src/apm32f10x_rcm.c ****     uint32_t temp;
 1639              		.loc 1 959 5 view .LVU290
 960:Library/APM32F10x_StdPeriphDriver/src/apm32f10x_rcm.c **** 
 961:Library/APM32F10x_StdPeriphDriver/src/apm32f10x_rcm.c ****     temp = interrupt << 8;
 1640              		.loc 1 961 5 view .LVU291
 962:Library/APM32F10x_StdPeriphDriver/src/apm32f10x_rcm.c **** 
 963:Library/APM32F10x_StdPeriphDriver/src/apm32f10x_rcm.c ****     RCM->INT &= (uint32_t)~temp;
 1641              		.loc 1 963 5 view .LVU292
 1642              		.loc 1 963 14 is_stmt 0 view .LVU293
 1643 0000 024A     		ldr	r2, .L156
 1644 0002 9368     		ldr	r3, [r2, #8]
 1645 0004 23EA0023 		bic	r3, r3, r0, lsl #8
 1646 0008 9360     		str	r3, [r2, #8]
 964:Library/APM32F10x_StdPeriphDriver/src/apm32f10x_rcm.c **** }
 1647              		.loc 1 964 1 view .LVU294
 1648 000a 7047     		bx	lr
 1649              	.L157:
 1650              		.align	2
 1651              	.L156:
 1652 000c 00100240 		.word	1073876992
 1653              		.cfi_endproc
 1654              	.LFE108:
 1656              		.section	.text.RCM_ReadStatusFlag,"ax",%progbits
 1657              		.align	1
 1658              		.global	RCM_ReadStatusFlag
 1659              		.syntax unified
ARM GAS  C:\Users\geehy\AppData\Local\Temp\ccYSLlwr.s 			page 46


 1660              		.thumb
 1661              		.thumb_func
 1663              	RCM_ReadStatusFlag:
 1664              	.LVL49:
 1665              	.LFB109:
 965:Library/APM32F10x_StdPeriphDriver/src/apm32f10x_rcm.c **** 
 966:Library/APM32F10x_StdPeriphDriver/src/apm32f10x_rcm.c **** /*!
 967:Library/APM32F10x_StdPeriphDriver/src/apm32f10x_rcm.c ****  * @brief     Read the specified RCM flag status
 968:Library/APM32F10x_StdPeriphDriver/src/apm32f10x_rcm.c ****  *
 969:Library/APM32F10x_StdPeriphDriver/src/apm32f10x_rcm.c ****  * @param     flag : Returns specifies the flag status.
 970:Library/APM32F10x_StdPeriphDriver/src/apm32f10x_rcm.c ****  *                   This parameter can be one of the following values:
 971:Library/APM32F10x_StdPeriphDriver/src/apm32f10x_rcm.c ****  *                   @arg RCM_FLAG_HSIRDY  : HSI ready flag
 972:Library/APM32F10x_StdPeriphDriver/src/apm32f10x_rcm.c ****  *                   @arg RCM_FLAG_HSERDY  : HSE ready flag
 973:Library/APM32F10x_StdPeriphDriver/src/apm32f10x_rcm.c ****  *                   @arg RCM_FLAG_PLLRDY  : PLL ready flag
 974:Library/APM32F10x_StdPeriphDriver/src/apm32f10x_rcm.c ****  *                   @arg RCM_FLAG_LSERDY  : LSE ready flag
 975:Library/APM32F10x_StdPeriphDriver/src/apm32f10x_rcm.c ****  *                   @arg RCM_FLAG_LSIRDY  : LSI ready flag
 976:Library/APM32F10x_StdPeriphDriver/src/apm32f10x_rcm.c ****  *                   @arg RCM_FLAG_PINRST  : NRST PIN Reset Occur Flag
 977:Library/APM32F10x_StdPeriphDriver/src/apm32f10x_rcm.c ****  *                   @arg RCM_FLAG_PORRST  : POR/PDR Reset Occur Flag
 978:Library/APM32F10x_StdPeriphDriver/src/apm32f10x_rcm.c ****  *                   @arg RCM_FLAG_SWRST   : Software Reset Occur Flag
 979:Library/APM32F10x_StdPeriphDriver/src/apm32f10x_rcm.c ****  *                   @arg RCM_FLAG_IWDTRST : Independent Watchdog Reset Occur Flag
 980:Library/APM32F10x_StdPeriphDriver/src/apm32f10x_rcm.c ****  *                   @arg RCM_FLAG_WWDTRST : Window Watchdog Reset Occur Flag
 981:Library/APM32F10x_StdPeriphDriver/src/apm32f10x_rcm.c ****  *                   @arg RCM_FLAG_LPRRST  : Low Power Reset Occur Flag
 982:Library/APM32F10x_StdPeriphDriver/src/apm32f10x_rcm.c ****  *
 983:Library/APM32F10x_StdPeriphDriver/src/apm32f10x_rcm.c ****  * @retval    The new state of flag (SET or RESET)
 984:Library/APM32F10x_StdPeriphDriver/src/apm32f10x_rcm.c ****  */
 985:Library/APM32F10x_StdPeriphDriver/src/apm32f10x_rcm.c **** uint8_t RCM_ReadStatusFlag(RCM_FLAG_T flag)
 986:Library/APM32F10x_StdPeriphDriver/src/apm32f10x_rcm.c **** {
 1666              		.loc 1 986 1 is_stmt 1 view -0
 1667              		.cfi_startproc
 1668              		@ args = 0, pretend = 0, frame = 0
 1669              		@ frame_needed = 0, uses_anonymous_args = 0
 1670              		@ link register save eliminated.
 987:Library/APM32F10x_StdPeriphDriver/src/apm32f10x_rcm.c ****     uint32_t reg, bit;
 1671              		.loc 1 987 5 view .LVU296
 988:Library/APM32F10x_StdPeriphDriver/src/apm32f10x_rcm.c **** 
 989:Library/APM32F10x_StdPeriphDriver/src/apm32f10x_rcm.c ****     bit = (uint32_t)(1 << (flag & 0xff));
 1672              		.loc 1 989 5 view .LVU297
 1673              		.loc 1 989 33 is_stmt 0 view .LVU298
 1674 0000 C2B2     		uxtb	r2, r0
 1675              		.loc 1 989 24 view .LVU299
 1676 0002 0123     		movs	r3, #1
 1677 0004 9340     		lsls	r3, r3, r2
 1678              	.LVL50:
 990:Library/APM32F10x_StdPeriphDriver/src/apm32f10x_rcm.c **** 
 991:Library/APM32F10x_StdPeriphDriver/src/apm32f10x_rcm.c ****     reg = (flag >> 8) & 0xff;
 1679              		.loc 1 991 5 is_stmt 1 view .LVU300
 1680              		.loc 1 991 23 is_stmt 0 view .LVU301
 1681 0006 000A     		lsrs	r0, r0, #8
 1682              	.LVL51:
 1683              		.loc 1 991 23 view .LVU302
 1684 0008 0246     		mov	r2, r0
 1685              	.LVL52:
 992:Library/APM32F10x_StdPeriphDriver/src/apm32f10x_rcm.c **** 
 993:Library/APM32F10x_StdPeriphDriver/src/apm32f10x_rcm.c ****     switch (reg)
 1686              		.loc 1 993 5 is_stmt 1 view .LVU303
 1687 000a 0128     		cmp	r0, #1
 1688 000c 09D0     		beq	.L159
ARM GAS  C:\Users\geehy\AppData\Local\Temp\ccYSLlwr.s 			page 47


 1689 000e 0228     		cmp	r0, #2
 1690 0010 0AD0     		beq	.L160
 1691 0012 18B1     		cbz	r0, .L164
 1692              	.LVL53:
 1693              	.L161:
 994:Library/APM32F10x_StdPeriphDriver/src/apm32f10x_rcm.c ****     {
 995:Library/APM32F10x_StdPeriphDriver/src/apm32f10x_rcm.c ****         case 0:
 996:Library/APM32F10x_StdPeriphDriver/src/apm32f10x_rcm.c ****             reg = RCM->CTRL;
 997:Library/APM32F10x_StdPeriphDriver/src/apm32f10x_rcm.c ****             break;
 998:Library/APM32F10x_StdPeriphDriver/src/apm32f10x_rcm.c **** 
 999:Library/APM32F10x_StdPeriphDriver/src/apm32f10x_rcm.c ****         case 1:
1000:Library/APM32F10x_StdPeriphDriver/src/apm32f10x_rcm.c ****             reg = RCM->BDCTRL;
1001:Library/APM32F10x_StdPeriphDriver/src/apm32f10x_rcm.c ****             break;
1002:Library/APM32F10x_StdPeriphDriver/src/apm32f10x_rcm.c **** 
1003:Library/APM32F10x_StdPeriphDriver/src/apm32f10x_rcm.c ****         case 2:
1004:Library/APM32F10x_StdPeriphDriver/src/apm32f10x_rcm.c ****             reg = RCM->CSTS;
1005:Library/APM32F10x_StdPeriphDriver/src/apm32f10x_rcm.c ****             break;
1006:Library/APM32F10x_StdPeriphDriver/src/apm32f10x_rcm.c **** 
1007:Library/APM32F10x_StdPeriphDriver/src/apm32f10x_rcm.c ****         default:
1008:Library/APM32F10x_StdPeriphDriver/src/apm32f10x_rcm.c ****             break;
1009:Library/APM32F10x_StdPeriphDriver/src/apm32f10x_rcm.c ****     }
1010:Library/APM32F10x_StdPeriphDriver/src/apm32f10x_rcm.c **** 
1011:Library/APM32F10x_StdPeriphDriver/src/apm32f10x_rcm.c ****     if (reg & bit)
 1694              		.loc 1 1011 5 view .LVU304
 1695              		.loc 1 1011 8 is_stmt 0 view .LVU305
 1696 0014 1A42     		tst	r2, r3
 1697 0016 0AD1     		bne	.L163
1012:Library/APM32F10x_StdPeriphDriver/src/apm32f10x_rcm.c ****     {
1013:Library/APM32F10x_StdPeriphDriver/src/apm32f10x_rcm.c ****         return SET;
1014:Library/APM32F10x_StdPeriphDriver/src/apm32f10x_rcm.c ****     }
1015:Library/APM32F10x_StdPeriphDriver/src/apm32f10x_rcm.c **** 
1016:Library/APM32F10x_StdPeriphDriver/src/apm32f10x_rcm.c ****     return RESET;
 1698              		.loc 1 1016 12 view .LVU306
 1699 0018 0020     		movs	r0, #0
 1700 001a 7047     		bx	lr
 1701              	.LVL54:
 1702              	.L164:
 996:Library/APM32F10x_StdPeriphDriver/src/apm32f10x_rcm.c ****             break;
 1703              		.loc 1 996 13 is_stmt 1 view .LVU307
 996:Library/APM32F10x_StdPeriphDriver/src/apm32f10x_rcm.c ****             break;
 1704              		.loc 1 996 17 is_stmt 0 view .LVU308
 1705 001c 054A     		ldr	r2, .L165
 1706 001e 1268     		ldr	r2, [r2]
 1707              	.LVL55:
 997:Library/APM32F10x_StdPeriphDriver/src/apm32f10x_rcm.c **** 
 1708              		.loc 1 997 13 is_stmt 1 view .LVU309
 1709 0020 F8E7     		b	.L161
 1710              	.LVL56:
 1711              	.L159:
1000:Library/APM32F10x_StdPeriphDriver/src/apm32f10x_rcm.c ****             break;
 1712              		.loc 1 1000 13 view .LVU310
1000:Library/APM32F10x_StdPeriphDriver/src/apm32f10x_rcm.c ****             break;
 1713              		.loc 1 1000 17 is_stmt 0 view .LVU311
 1714 0022 044A     		ldr	r2, .L165
 1715 0024 126A     		ldr	r2, [r2, #32]
 1716              	.LVL57:
1001:Library/APM32F10x_StdPeriphDriver/src/apm32f10x_rcm.c **** 
ARM GAS  C:\Users\geehy\AppData\Local\Temp\ccYSLlwr.s 			page 48


 1717              		.loc 1 1001 13 is_stmt 1 view .LVU312
 1718 0026 F5E7     		b	.L161
 1719              	.LVL58:
 1720              	.L160:
1004:Library/APM32F10x_StdPeriphDriver/src/apm32f10x_rcm.c ****             break;
 1721              		.loc 1 1004 13 view .LVU313
1004:Library/APM32F10x_StdPeriphDriver/src/apm32f10x_rcm.c ****             break;
 1722              		.loc 1 1004 17 is_stmt 0 view .LVU314
 1723 0028 024A     		ldr	r2, .L165
 1724 002a 526A     		ldr	r2, [r2, #36]
 1725              	.LVL59:
1005:Library/APM32F10x_StdPeriphDriver/src/apm32f10x_rcm.c **** 
 1726              		.loc 1 1005 13 is_stmt 1 view .LVU315
 1727 002c F2E7     		b	.L161
 1728              	.L163:
1013:Library/APM32F10x_StdPeriphDriver/src/apm32f10x_rcm.c ****     }
 1729              		.loc 1 1013 16 is_stmt 0 view .LVU316
 1730 002e 0120     		movs	r0, #1
1017:Library/APM32F10x_StdPeriphDriver/src/apm32f10x_rcm.c **** }
 1731              		.loc 1 1017 1 view .LVU317
 1732 0030 7047     		bx	lr
 1733              	.L166:
 1734 0032 00BF     		.align	2
 1735              	.L165:
 1736 0034 00100240 		.word	1073876992
 1737              		.cfi_endproc
 1738              	.LFE109:
 1740              		.section	.text.RCM_ClearStatusFlag,"ax",%progbits
 1741              		.align	1
 1742              		.global	RCM_ClearStatusFlag
 1743              		.syntax unified
 1744              		.thumb
 1745              		.thumb_func
 1747              	RCM_ClearStatusFlag:
 1748              	.LFB110:
1018:Library/APM32F10x_StdPeriphDriver/src/apm32f10x_rcm.c **** 
1019:Library/APM32F10x_StdPeriphDriver/src/apm32f10x_rcm.c **** /*!
1020:Library/APM32F10x_StdPeriphDriver/src/apm32f10x_rcm.c ****  * @brief     Clears all the RCM reset flags
1021:Library/APM32F10x_StdPeriphDriver/src/apm32f10x_rcm.c ****  *
1022:Library/APM32F10x_StdPeriphDriver/src/apm32f10x_rcm.c ****  * @param     None
1023:Library/APM32F10x_StdPeriphDriver/src/apm32f10x_rcm.c ****  *
1024:Library/APM32F10x_StdPeriphDriver/src/apm32f10x_rcm.c ****  * @retval    None
1025:Library/APM32F10x_StdPeriphDriver/src/apm32f10x_rcm.c ****  *
1026:Library/APM32F10x_StdPeriphDriver/src/apm32f10x_rcm.c ****  * @note      The reset flags are:
1027:Library/APM32F10x_StdPeriphDriver/src/apm32f10x_rcm.c ****  *            RCM_FLAG_PINRST, RCM_FLAG_PWRST, RCM_FLAG_SWRST
1028:Library/APM32F10x_StdPeriphDriver/src/apm32f10x_rcm.c ****  *            RCM_FLAG_IWDTRST, RCM_FLAG_WWDTRST, RCM_FLAG_LPRRST
1029:Library/APM32F10x_StdPeriphDriver/src/apm32f10x_rcm.c ****  */
1030:Library/APM32F10x_StdPeriphDriver/src/apm32f10x_rcm.c **** void RCM_ClearStatusFlag(void)
1031:Library/APM32F10x_StdPeriphDriver/src/apm32f10x_rcm.c **** {
 1749              		.loc 1 1031 1 is_stmt 1 view -0
 1750              		.cfi_startproc
 1751              		@ args = 0, pretend = 0, frame = 0
 1752              		@ frame_needed = 0, uses_anonymous_args = 0
 1753              		@ link register save eliminated.
1032:Library/APM32F10x_StdPeriphDriver/src/apm32f10x_rcm.c ****     RCM->CSTS_B.RSTFLGCLR = BIT_SET;
 1754              		.loc 1 1032 5 view .LVU319
 1755              		.loc 1 1032 27 is_stmt 0 view .LVU320
ARM GAS  C:\Users\geehy\AppData\Local\Temp\ccYSLlwr.s 			page 49


 1756 0000 024A     		ldr	r2, .L168
 1757 0002 536A     		ldr	r3, [r2, #36]
 1758 0004 43F08073 		orr	r3, r3, #16777216
 1759 0008 5362     		str	r3, [r2, #36]
1033:Library/APM32F10x_StdPeriphDriver/src/apm32f10x_rcm.c **** }
 1760              		.loc 1 1033 1 view .LVU321
 1761 000a 7047     		bx	lr
 1762              	.L169:
 1763              		.align	2
 1764              	.L168:
 1765 000c 00100240 		.word	1073876992
 1766              		.cfi_endproc
 1767              	.LFE110:
 1769              		.section	.text.RCM_ReadIntFlag,"ax",%progbits
 1770              		.align	1
 1771              		.global	RCM_ReadIntFlag
 1772              		.syntax unified
 1773              		.thumb
 1774              		.thumb_func
 1776              	RCM_ReadIntFlag:
 1777              	.LVL60:
 1778              	.LFB111:
1034:Library/APM32F10x_StdPeriphDriver/src/apm32f10x_rcm.c **** 
1035:Library/APM32F10x_StdPeriphDriver/src/apm32f10x_rcm.c **** /*!
1036:Library/APM32F10x_StdPeriphDriver/src/apm32f10x_rcm.c ****  * @brief     Reads the specified RCM interrupt Flag
1037:Library/APM32F10x_StdPeriphDriver/src/apm32f10x_rcm.c ****  *
1038:Library/APM32F10x_StdPeriphDriver/src/apm32f10x_rcm.c ****  * @param     flag Reads specifies RCM interrupt flag.
1039:Library/APM32F10x_StdPeriphDriver/src/apm32f10x_rcm.c ****  *                   This parameter can be one of the following values:
1040:Library/APM32F10x_StdPeriphDriver/src/apm32f10x_rcm.c ****  *                   @arg RCM_INT_LSIRDY : LSI ready interrupt flag
1041:Library/APM32F10x_StdPeriphDriver/src/apm32f10x_rcm.c ****  *                   @arg RCM_INT_LSERDY : LSE ready interrupt flag
1042:Library/APM32F10x_StdPeriphDriver/src/apm32f10x_rcm.c ****  *                   @arg RCM_INT_HSIRDY : HSI ready interrupt flag
1043:Library/APM32F10x_StdPeriphDriver/src/apm32f10x_rcm.c ****  *                   @arg RCM_INT_HSERDY : HSE ready interrupt flag
1044:Library/APM32F10x_StdPeriphDriver/src/apm32f10x_rcm.c ****  *                   @arg RCM_INT_PLLRDY : PLL ready interrupt flag
1045:Library/APM32F10x_StdPeriphDriver/src/apm32f10x_rcm.c ****  *                   @arg RCM_INT_CSS    : Clock Security System interrupt flag
1046:Library/APM32F10x_StdPeriphDriver/src/apm32f10x_rcm.c ****  *
1047:Library/APM32F10x_StdPeriphDriver/src/apm32f10x_rcm.c ****  * @retval    The new state of intFlag (SET or RESET)
1048:Library/APM32F10x_StdPeriphDriver/src/apm32f10x_rcm.c ****  */
1049:Library/APM32F10x_StdPeriphDriver/src/apm32f10x_rcm.c **** uint8_t RCM_ReadIntFlag(RCM_INT_T flag)
1050:Library/APM32F10x_StdPeriphDriver/src/apm32f10x_rcm.c **** {
 1779              		.loc 1 1050 1 is_stmt 1 view -0
 1780              		.cfi_startproc
 1781              		@ args = 0, pretend = 0, frame = 0
 1782              		@ frame_needed = 0, uses_anonymous_args = 0
 1783              		@ link register save eliminated.
1051:Library/APM32F10x_StdPeriphDriver/src/apm32f10x_rcm.c ****     return (RCM->INT& flag) ? SET : RESET;
 1784              		.loc 1 1051 5 view .LVU323
 1785              		.loc 1 1051 16 is_stmt 0 view .LVU324
 1786 0000 034B     		ldr	r3, .L171
 1787 0002 9B68     		ldr	r3, [r3, #8]
 1788              		.loc 1 1051 35 view .LVU325
 1789 0004 1842     		tst	r0, r3
1052:Library/APM32F10x_StdPeriphDriver/src/apm32f10x_rcm.c **** }
 1790              		.loc 1 1052 1 view .LVU326
 1791 0006 14BF     		ite	ne
 1792 0008 0120     		movne	r0, #1
 1793              	.LVL61:
 1794              		.loc 1 1052 1 view .LVU327
ARM GAS  C:\Users\geehy\AppData\Local\Temp\ccYSLlwr.s 			page 50


 1795 000a 0020     		moveq	r0, #0
 1796 000c 7047     		bx	lr
 1797              	.L172:
 1798 000e 00BF     		.align	2
 1799              	.L171:
 1800 0010 00100240 		.word	1073876992
 1801              		.cfi_endproc
 1802              	.LFE111:
 1804              		.section	.text.RCM_ClearIntFlag,"ax",%progbits
 1805              		.align	1
 1806              		.global	RCM_ClearIntFlag
 1807              		.syntax unified
 1808              		.thumb
 1809              		.thumb_func
 1811              	RCM_ClearIntFlag:
 1812              	.LVL62:
 1813              	.LFB112:
1053:Library/APM32F10x_StdPeriphDriver/src/apm32f10x_rcm.c **** 
1054:Library/APM32F10x_StdPeriphDriver/src/apm32f10x_rcm.c **** /*!
1055:Library/APM32F10x_StdPeriphDriver/src/apm32f10x_rcm.c ****  * @brief     Clears the interrupt flag
1056:Library/APM32F10x_StdPeriphDriver/src/apm32f10x_rcm.c ****  *
1057:Library/APM32F10x_StdPeriphDriver/src/apm32f10x_rcm.c ****  * @param     flag : Clears specifies interrupt flag.
1058:Library/APM32F10x_StdPeriphDriver/src/apm32f10x_rcm.c ****  *                   @arg RCM_INT_LSIRDY : Clear LSI ready interrupt flag
1059:Library/APM32F10x_StdPeriphDriver/src/apm32f10x_rcm.c ****  *                   @arg RCM_INT_LSERDY : Clear LSE ready interrupt flag
1060:Library/APM32F10x_StdPeriphDriver/src/apm32f10x_rcm.c ****  *                   @arg RCM_INT_HSIRDY : Clear HSI ready interrupt flag
1061:Library/APM32F10x_StdPeriphDriver/src/apm32f10x_rcm.c ****  *                   @arg RCM_INT_HSERDY : Clear HSE ready interrupt flag
1062:Library/APM32F10x_StdPeriphDriver/src/apm32f10x_rcm.c ****  *                   @arg RCM_INT_PLLRDY : Clear PLL ready interrupt flag
1063:Library/APM32F10x_StdPeriphDriver/src/apm32f10x_rcm.c ****  *                   @arg RCM_INT_CSS    : Clear Clock Security System interrupt flag
1064:Library/APM32F10x_StdPeriphDriver/src/apm32f10x_rcm.c ****  *
1065:Library/APM32F10x_StdPeriphDriver/src/apm32f10x_rcm.c ****  * @retval    None
1066:Library/APM32F10x_StdPeriphDriver/src/apm32f10x_rcm.c ****  */
1067:Library/APM32F10x_StdPeriphDriver/src/apm32f10x_rcm.c **** void RCM_ClearIntFlag(uint32_t flag)
1068:Library/APM32F10x_StdPeriphDriver/src/apm32f10x_rcm.c **** {
 1814              		.loc 1 1068 1 is_stmt 1 view -0
 1815              		.cfi_startproc
 1816              		@ args = 0, pretend = 0, frame = 0
 1817              		@ frame_needed = 0, uses_anonymous_args = 0
 1818              		@ link register save eliminated.
1069:Library/APM32F10x_StdPeriphDriver/src/apm32f10x_rcm.c ****     uint32_t temp;
 1819              		.loc 1 1069 5 view .LVU329
1070:Library/APM32F10x_StdPeriphDriver/src/apm32f10x_rcm.c **** 
1071:Library/APM32F10x_StdPeriphDriver/src/apm32f10x_rcm.c ****     temp = flag << 16;
 1820              		.loc 1 1071 5 view .LVU330
1072:Library/APM32F10x_StdPeriphDriver/src/apm32f10x_rcm.c ****     RCM->INT |= temp;
 1821              		.loc 1 1072 5 view .LVU331
 1822              		.loc 1 1072 14 is_stmt 0 view .LVU332
 1823 0000 024A     		ldr	r2, .L174
 1824 0002 9368     		ldr	r3, [r2, #8]
 1825 0004 43EA0043 		orr	r3, r3, r0, lsl #16
 1826 0008 9360     		str	r3, [r2, #8]
1073:Library/APM32F10x_StdPeriphDriver/src/apm32f10x_rcm.c **** }
 1827              		.loc 1 1073 1 view .LVU333
 1828 000a 7047     		bx	lr
 1829              	.L175:
 1830              		.align	2
 1831              	.L174:
 1832 000c 00100240 		.word	1073876992
ARM GAS  C:\Users\geehy\AppData\Local\Temp\ccYSLlwr.s 			page 51


 1833              		.cfi_endproc
 1834              	.LFE112:
 1836              		.section	.rodata
 1837              		.align	2
 1838              		.set	.LANCHOR0,. + 0
 1839              	.LC0:
 1840 0000 00000000 		.ascii	"\000\000\000\000\000\000\000\000\001\002\003\004\006"
 1840      00000000 
 1840      01020304 
 1840      06
 1841 000d 070809   		.ascii	"\007\010\011"
 1842              	.LC1:
 1843 0010 00000000 		.ascii	"\000\000\000\000\001\002\003\004"
 1843      01020304 
 1844              		.text
 1845              	.Letext0:
 1846              		.file 2 "d:\\program files (x86)\\gnu arm embedded toolchain\\10 2021.10\\arm-none-eabi\\include\\
 1847              		.file 3 "d:\\program files (x86)\\gnu arm embedded toolchain\\10 2021.10\\arm-none-eabi\\include\\
 1848              		.file 4 "Library/Device/Geehy/APM32F10x/Include/apm32f10x.h"
 1849              		.file 5 "Library/APM32F10x_StdPeriphDriver/inc/apm32f10x_rcm.h"
ARM GAS  C:\Users\geehy\AppData\Local\Temp\ccYSLlwr.s 			page 52

