ARM GAS  C:\Users\geehy\AppData\Local\Temp\ccC4aZhN.s 			page 1


   1              		.cpu cortex-m3
   2              		.arch armv7-m
   3              		.fpu softvfp
   4              		.eabi_attribute 20, 1
   5              		.eabi_attribute 21, 1
   6              		.eabi_attribute 23, 3
   7              		.eabi_attribute 24, 1
   8              		.eabi_attribute 25, 1
   9              		.eabi_attribute 26, 1
  10              		.eabi_attribute 30, 1
  11              		.eabi_attribute 34, 1
  12              		.eabi_attribute 18, 4
  13              		.file	"apm32f10x_eint.c"
  14              		.text
  15              	.Ltext0:
  16              		.cfi_sections	.debug_frame
  17              		.section	.text.EINT_Reset,"ax",%progbits
  18              		.align	1
  19              		.global	EINT_Reset
  20              		.syntax unified
  21              		.thumb
  22              		.thumb_func
  24              	EINT_Reset:
  25              	.LFB65:
  26              		.file 1 "Library/APM32F10x_StdPeriphDriver/src/apm32f10x_eint.c"
   1:Library/APM32F10x_StdPeriphDriver/src/apm32f10x_eint.c **** /*!
   2:Library/APM32F10x_StdPeriphDriver/src/apm32f10x_eint.c ****  * @file        apm32f10x_eint.c
   3:Library/APM32F10x_StdPeriphDriver/src/apm32f10x_eint.c ****  *
   4:Library/APM32F10x_StdPeriphDriver/src/apm32f10x_eint.c ****  * @brief       This file provides all the EINT firmware functions
   5:Library/APM32F10x_StdPeriphDriver/src/apm32f10x_eint.c ****  *
   6:Library/APM32F10x_StdPeriphDriver/src/apm32f10x_eint.c ****  * @version     V1.0.2
   7:Library/APM32F10x_StdPeriphDriver/src/apm32f10x_eint.c ****  *
   8:Library/APM32F10x_StdPeriphDriver/src/apm32f10x_eint.c ****  * @date        2022-01-05
   9:Library/APM32F10x_StdPeriphDriver/src/apm32f10x_eint.c ****  *
  10:Library/APM32F10x_StdPeriphDriver/src/apm32f10x_eint.c ****  * @attention
  11:Library/APM32F10x_StdPeriphDriver/src/apm32f10x_eint.c ****  *
  12:Library/APM32F10x_StdPeriphDriver/src/apm32f10x_eint.c ****  *  Copyright (C) 2020-2022 Geehy Semiconductor
  13:Library/APM32F10x_StdPeriphDriver/src/apm32f10x_eint.c ****  *
  14:Library/APM32F10x_StdPeriphDriver/src/apm32f10x_eint.c ****  *  You may not use this file except in compliance with the
  15:Library/APM32F10x_StdPeriphDriver/src/apm32f10x_eint.c ****  *  GEEHY COPYRIGHT NOTICE (GEEHY SOFTWARE PACKAGE LICENSE).
  16:Library/APM32F10x_StdPeriphDriver/src/apm32f10x_eint.c ****  *
  17:Library/APM32F10x_StdPeriphDriver/src/apm32f10x_eint.c ****  *  The program is only for reference, which is distributed in the hope
  18:Library/APM32F10x_StdPeriphDriver/src/apm32f10x_eint.c ****  *  that it will be usefull and instructional for customers to develop
  19:Library/APM32F10x_StdPeriphDriver/src/apm32f10x_eint.c ****  *  their software. Unless required by applicable law or agreed to in
  20:Library/APM32F10x_StdPeriphDriver/src/apm32f10x_eint.c ****  *  writing, the program is distributed on an "AS IS" BASIS, WITHOUT
  21:Library/APM32F10x_StdPeriphDriver/src/apm32f10x_eint.c ****  *  ANY WARRANTY OR CONDITIONS OF ANY KIND, either express or implied.
  22:Library/APM32F10x_StdPeriphDriver/src/apm32f10x_eint.c ****  *  See the GEEHY SOFTWARE PACKAGE LICENSE for the governing permissions
  23:Library/APM32F10x_StdPeriphDriver/src/apm32f10x_eint.c ****  *  and limitations under the License.
  24:Library/APM32F10x_StdPeriphDriver/src/apm32f10x_eint.c ****  */
  25:Library/APM32F10x_StdPeriphDriver/src/apm32f10x_eint.c **** 
  26:Library/APM32F10x_StdPeriphDriver/src/apm32f10x_eint.c **** #include "apm32f10x_eint.h"
  27:Library/APM32F10x_StdPeriphDriver/src/apm32f10x_eint.c **** 
  28:Library/APM32F10x_StdPeriphDriver/src/apm32f10x_eint.c **** /** @addtogroup Peripherals_Library Standard Peripheral Library
  29:Library/APM32F10x_StdPeriphDriver/src/apm32f10x_eint.c ****   @{
  30:Library/APM32F10x_StdPeriphDriver/src/apm32f10x_eint.c **** */
  31:Library/APM32F10x_StdPeriphDriver/src/apm32f10x_eint.c **** 
  32:Library/APM32F10x_StdPeriphDriver/src/apm32f10x_eint.c **** /** @addtogroup EINT_Driver EINT Driver
ARM GAS  C:\Users\geehy\AppData\Local\Temp\ccC4aZhN.s 			page 2


  33:Library/APM32F10x_StdPeriphDriver/src/apm32f10x_eint.c ****   @{
  34:Library/APM32F10x_StdPeriphDriver/src/apm32f10x_eint.c **** */
  35:Library/APM32F10x_StdPeriphDriver/src/apm32f10x_eint.c **** 
  36:Library/APM32F10x_StdPeriphDriver/src/apm32f10x_eint.c **** /** @addtogroup EINT_Fuctions Fuctions
  37:Library/APM32F10x_StdPeriphDriver/src/apm32f10x_eint.c ****   @{
  38:Library/APM32F10x_StdPeriphDriver/src/apm32f10x_eint.c **** */
  39:Library/APM32F10x_StdPeriphDriver/src/apm32f10x_eint.c **** 
  40:Library/APM32F10x_StdPeriphDriver/src/apm32f10x_eint.c **** /*!
  41:Library/APM32F10x_StdPeriphDriver/src/apm32f10x_eint.c ****  * @brief        Reset the EINT peripheral registers to their default reset values.
  42:Library/APM32F10x_StdPeriphDriver/src/apm32f10x_eint.c ****  *
  43:Library/APM32F10x_StdPeriphDriver/src/apm32f10x_eint.c ****  * @param        None
  44:Library/APM32F10x_StdPeriphDriver/src/apm32f10x_eint.c ****  *
  45:Library/APM32F10x_StdPeriphDriver/src/apm32f10x_eint.c ****  * @retval       None
  46:Library/APM32F10x_StdPeriphDriver/src/apm32f10x_eint.c ****  */
  47:Library/APM32F10x_StdPeriphDriver/src/apm32f10x_eint.c **** void EINT_Reset(void)
  48:Library/APM32F10x_StdPeriphDriver/src/apm32f10x_eint.c **** {
  27              		.loc 1 48 1 view -0
  28              		.cfi_startproc
  29              		@ args = 0, pretend = 0, frame = 0
  30              		@ frame_needed = 0, uses_anonymous_args = 0
  31              		@ link register save eliminated.
  49:Library/APM32F10x_StdPeriphDriver/src/apm32f10x_eint.c ****     EINT->IMASK = 0x00000000;
  32              		.loc 1 49 5 view .LVU1
  33              		.loc 1 49 17 is_stmt 0 view .LVU2
  34 0000 044B     		ldr	r3, .L2
  35 0002 0022     		movs	r2, #0
  36 0004 1A60     		str	r2, [r3]
  50:Library/APM32F10x_StdPeriphDriver/src/apm32f10x_eint.c ****     EINT->EMASK = 0x00000000;
  37              		.loc 1 50 5 is_stmt 1 view .LVU3
  38              		.loc 1 50 17 is_stmt 0 view .LVU4
  39 0006 5A60     		str	r2, [r3, #4]
  51:Library/APM32F10x_StdPeriphDriver/src/apm32f10x_eint.c ****     EINT->RTEN  = 0x00000000;
  40              		.loc 1 51 5 is_stmt 1 view .LVU5
  41              		.loc 1 51 17 is_stmt 0 view .LVU6
  42 0008 9A60     		str	r2, [r3, #8]
  52:Library/APM32F10x_StdPeriphDriver/src/apm32f10x_eint.c ****     EINT->FTEN  = 0x00000000;
  43              		.loc 1 52 5 is_stmt 1 view .LVU7
  44              		.loc 1 52 17 is_stmt 0 view .LVU8
  45 000a DA60     		str	r2, [r3, #12]
  53:Library/APM32F10x_StdPeriphDriver/src/apm32f10x_eint.c ****     EINT->IPEND = 0x000FFFFF;
  46              		.loc 1 53 5 is_stmt 1 view .LVU9
  47              		.loc 1 53 17 is_stmt 0 view .LVU10
  48 000c 024A     		ldr	r2, .L2+4
  49 000e 5A61     		str	r2, [r3, #20]
  54:Library/APM32F10x_StdPeriphDriver/src/apm32f10x_eint.c **** }
  50              		.loc 1 54 1 view .LVU11
  51 0010 7047     		bx	lr
  52              	.L3:
  53 0012 00BF     		.align	2
  54              	.L2:
  55 0014 00040140 		.word	1073808384
  56 0018 FFFF0F00 		.word	1048575
  57              		.cfi_endproc
  58              	.LFE65:
  60              		.section	.text.EINT_Config,"ax",%progbits
  61              		.align	1
  62              		.global	EINT_Config
ARM GAS  C:\Users\geehy\AppData\Local\Temp\ccC4aZhN.s 			page 3


  63              		.syntax unified
  64              		.thumb
  65              		.thumb_func
  67              	EINT_Config:
  68              	.LVL0:
  69              	.LFB66:
  55:Library/APM32F10x_StdPeriphDriver/src/apm32f10x_eint.c **** 
  56:Library/APM32F10x_StdPeriphDriver/src/apm32f10x_eint.c **** /*!
  57:Library/APM32F10x_StdPeriphDriver/src/apm32f10x_eint.c ****  * @brief        Configure the EINT
  58:Library/APM32F10x_StdPeriphDriver/src/apm32f10x_eint.c ****  *
  59:Library/APM32F10x_StdPeriphDriver/src/apm32f10x_eint.c ****  * @param        eintConfig: pointer to a EINT_Config_T structure.
  60:Library/APM32F10x_StdPeriphDriver/src/apm32f10x_eint.c ****  *
  61:Library/APM32F10x_StdPeriphDriver/src/apm32f10x_eint.c ****  * @retval       None
  62:Library/APM32F10x_StdPeriphDriver/src/apm32f10x_eint.c ****  */
  63:Library/APM32F10x_StdPeriphDriver/src/apm32f10x_eint.c **** void EINT_Config(EINT_Config_T* eintConfig)
  64:Library/APM32F10x_StdPeriphDriver/src/apm32f10x_eint.c **** {
  70              		.loc 1 64 1 is_stmt 1 view -0
  71              		.cfi_startproc
  72              		@ args = 0, pretend = 0, frame = 0
  73              		@ frame_needed = 0, uses_anonymous_args = 0
  74              		@ link register save eliminated.
  65:Library/APM32F10x_StdPeriphDriver/src/apm32f10x_eint.c ****     uint32_t temp = 0;
  75              		.loc 1 65 5 view .LVU13
  66:Library/APM32F10x_StdPeriphDriver/src/apm32f10x_eint.c ****     temp = (uint32_t)EINT_BASE;
  76              		.loc 1 66 5 view .LVU14
  67:Library/APM32F10x_StdPeriphDriver/src/apm32f10x_eint.c **** 
  68:Library/APM32F10x_StdPeriphDriver/src/apm32f10x_eint.c ****     if(eintConfig->lineCmd != DISABLE)
  77              		.loc 1 68 5 view .LVU15
  78              		.loc 1 68 18 is_stmt 0 view .LVU16
  79 0000 8379     		ldrb	r3, [r0, #6]	@ zero_extendqisi2
  80              		.loc 1 68 7 view .LVU17
  81 0002 002B     		cmp	r3, #0
  82 0004 35D0     		beq	.L5
  64:Library/APM32F10x_StdPeriphDriver/src/apm32f10x_eint.c ****     uint32_t temp = 0;
  83              		.loc 1 64 1 view .LVU18
  84 0006 10B4     		push	{r4}
  85              	.LCFI0:
  86              		.cfi_def_cfa_offset 4
  87              		.cfi_offset 4, -4
  69:Library/APM32F10x_StdPeriphDriver/src/apm32f10x_eint.c ****     {
  70:Library/APM32F10x_StdPeriphDriver/src/apm32f10x_eint.c ****         EINT->IMASK &= ~eintConfig->line;
  88              		.loc 1 70 9 is_stmt 1 view .LVU19
  89              		.loc 1 70 21 is_stmt 0 view .LVU20
  90 0008 1F4B     		ldr	r3, .L13
  91 000a 1A68     		ldr	r2, [r3]
  92              		.loc 1 70 35 view .LVU21
  93 000c 0168     		ldr	r1, [r0]
  94              		.loc 1 70 21 view .LVU22
  95 000e 22EA0102 		bic	r2, r2, r1
  96 0012 1A60     		str	r2, [r3]
  71:Library/APM32F10x_StdPeriphDriver/src/apm32f10x_eint.c ****         EINT->EMASK &= ~eintConfig->line;
  97              		.loc 1 71 9 is_stmt 1 view .LVU23
  98              		.loc 1 71 21 is_stmt 0 view .LVU24
  99 0014 5A68     		ldr	r2, [r3, #4]
 100              		.loc 1 71 35 view .LVU25
 101 0016 0168     		ldr	r1, [r0]
 102              		.loc 1 71 21 view .LVU26
ARM GAS  C:\Users\geehy\AppData\Local\Temp\ccC4aZhN.s 			page 4


 103 0018 22EA0102 		bic	r2, r2, r1
 104 001c 5A60     		str	r2, [r3, #4]
  72:Library/APM32F10x_StdPeriphDriver/src/apm32f10x_eint.c **** 
  73:Library/APM32F10x_StdPeriphDriver/src/apm32f10x_eint.c ****         temp += eintConfig->mode;
 105              		.loc 1 73 9 is_stmt 1 view .LVU27
 106              		.loc 1 73 27 is_stmt 0 view .LVU28
 107 001e 0279     		ldrb	r2, [r0, #4]	@ zero_extendqisi2
 108              		.loc 1 73 14 view .LVU29
 109 0020 02F18042 		add	r2, r2, #1073741824
 110 0024 02F58232 		add	r2, r2, #66560
 111              	.LVL1:
  74:Library/APM32F10x_StdPeriphDriver/src/apm32f10x_eint.c ****         *(__IOM uint32_t *) temp |= eintConfig->line;
 112              		.loc 1 74 9 is_stmt 1 view .LVU30
 113              		.loc 1 74 34 is_stmt 0 view .LVU31
 114 0028 1168     		ldr	r1, [r2]
 115 002a 0468     		ldr	r4, [r0]
 116 002c 2143     		orrs	r1, r1, r4
 117 002e 1160     		str	r1, [r2]
  75:Library/APM32F10x_StdPeriphDriver/src/apm32f10x_eint.c **** 
  76:Library/APM32F10x_StdPeriphDriver/src/apm32f10x_eint.c ****         EINT->RTEN &= ~eintConfig->line;
 118              		.loc 1 76 9 is_stmt 1 view .LVU32
 119              		.loc 1 76 20 is_stmt 0 view .LVU33
 120 0030 9A68     		ldr	r2, [r3, #8]
 121              	.LVL2:
 122              		.loc 1 76 34 view .LVU34
 123 0032 0168     		ldr	r1, [r0]
 124              		.loc 1 76 20 view .LVU35
 125 0034 22EA0102 		bic	r2, r2, r1
 126 0038 9A60     		str	r2, [r3, #8]
  77:Library/APM32F10x_StdPeriphDriver/src/apm32f10x_eint.c ****         EINT->FTEN &= ~eintConfig->line;
 127              		.loc 1 77 9 is_stmt 1 view .LVU36
 128              		.loc 1 77 20 is_stmt 0 view .LVU37
 129 003a DA68     		ldr	r2, [r3, #12]
 130              		.loc 1 77 34 view .LVU38
 131 003c 0168     		ldr	r1, [r0]
 132              		.loc 1 77 20 view .LVU39
 133 003e 22EA0102 		bic	r2, r2, r1
 134 0042 DA60     		str	r2, [r3, #12]
  78:Library/APM32F10x_StdPeriphDriver/src/apm32f10x_eint.c **** 
  79:Library/APM32F10x_StdPeriphDriver/src/apm32f10x_eint.c ****         if (eintConfig->trigger == EINT_TRIGGER_RISING_FALLING)
 135              		.loc 1 79 9 is_stmt 1 view .LVU40
 136              		.loc 1 79 23 is_stmt 0 view .LVU41
 137 0044 4379     		ldrb	r3, [r0, #5]	@ zero_extendqisi2
 138              		.loc 1 79 12 view .LVU42
 139 0046 102B     		cmp	r3, #16
 140 0048 09D0     		beq	.L12
  80:Library/APM32F10x_StdPeriphDriver/src/apm32f10x_eint.c ****         {
  81:Library/APM32F10x_StdPeriphDriver/src/apm32f10x_eint.c ****             EINT->RTEN |= eintConfig->line;
  82:Library/APM32F10x_StdPeriphDriver/src/apm32f10x_eint.c ****             EINT->FTEN |= eintConfig->line;
  83:Library/APM32F10x_StdPeriphDriver/src/apm32f10x_eint.c ****         }
  84:Library/APM32F10x_StdPeriphDriver/src/apm32f10x_eint.c ****         else
  85:Library/APM32F10x_StdPeriphDriver/src/apm32f10x_eint.c ****         {
  86:Library/APM32F10x_StdPeriphDriver/src/apm32f10x_eint.c ****             temp = (uint32_t)EINT_BASE;
 141              		.loc 1 86 13 is_stmt 1 view .LVU43
 142              	.LVL3:
  87:Library/APM32F10x_StdPeriphDriver/src/apm32f10x_eint.c ****             temp += eintConfig->trigger;
 143              		.loc 1 87 13 view .LVU44
ARM GAS  C:\Users\geehy\AppData\Local\Temp\ccC4aZhN.s 			page 5


 144              		.loc 1 87 18 is_stmt 0 view .LVU45
 145 004a 03F18043 		add	r3, r3, #1073741824
 146 004e 03F58233 		add	r3, r3, #66560
 147              	.LVL4:
  88:Library/APM32F10x_StdPeriphDriver/src/apm32f10x_eint.c **** 
  89:Library/APM32F10x_StdPeriphDriver/src/apm32f10x_eint.c ****             *(__IOM uint32_t *) temp |= eintConfig->line;
 148              		.loc 1 89 13 is_stmt 1 view .LVU46
 149              		.loc 1 89 38 is_stmt 0 view .LVU47
 150 0052 1A68     		ldr	r2, [r3]
 151              		.loc 1 89 51 view .LVU48
 152 0054 0168     		ldr	r1, [r0]
 153              		.loc 1 89 38 view .LVU49
 154 0056 0A43     		orrs	r2, r2, r1
 155 0058 1A60     		str	r2, [r3]
 156              	.LVL5:
 157              	.L4:
  90:Library/APM32F10x_StdPeriphDriver/src/apm32f10x_eint.c ****         }
  91:Library/APM32F10x_StdPeriphDriver/src/apm32f10x_eint.c ****     }
  92:Library/APM32F10x_StdPeriphDriver/src/apm32f10x_eint.c ****     else
  93:Library/APM32F10x_StdPeriphDriver/src/apm32f10x_eint.c ****     {
  94:Library/APM32F10x_StdPeriphDriver/src/apm32f10x_eint.c ****         temp += eintConfig->mode;
  95:Library/APM32F10x_StdPeriphDriver/src/apm32f10x_eint.c **** 
  96:Library/APM32F10x_StdPeriphDriver/src/apm32f10x_eint.c ****         *(__IOM uint32_t *) temp &= ~eintConfig->line;
  97:Library/APM32F10x_StdPeriphDriver/src/apm32f10x_eint.c ****     }
  98:Library/APM32F10x_StdPeriphDriver/src/apm32f10x_eint.c **** }
 158              		.loc 1 98 1 view .LVU50
 159 005a 10BC     		pop	{r4}
 160              	.LCFI1:
 161              		.cfi_remember_state
 162              		.cfi_restore 4
 163              		.cfi_def_cfa_offset 0
 164 005c 7047     		bx	lr
 165              	.L12:
 166              	.LCFI2:
 167              		.cfi_restore_state
  81:Library/APM32F10x_StdPeriphDriver/src/apm32f10x_eint.c ****             EINT->FTEN |= eintConfig->line;
 168              		.loc 1 81 13 is_stmt 1 view .LVU51
  81:Library/APM32F10x_StdPeriphDriver/src/apm32f10x_eint.c ****             EINT->FTEN |= eintConfig->line;
 169              		.loc 1 81 24 is_stmt 0 view .LVU52
 170 005e 0A4B     		ldr	r3, .L13
 171 0060 9A68     		ldr	r2, [r3, #8]
  81:Library/APM32F10x_StdPeriphDriver/src/apm32f10x_eint.c ****             EINT->FTEN |= eintConfig->line;
 172              		.loc 1 81 37 view .LVU53
 173 0062 0168     		ldr	r1, [r0]
  81:Library/APM32F10x_StdPeriphDriver/src/apm32f10x_eint.c ****             EINT->FTEN |= eintConfig->line;
 174              		.loc 1 81 24 view .LVU54
 175 0064 0A43     		orrs	r2, r2, r1
 176 0066 9A60     		str	r2, [r3, #8]
  82:Library/APM32F10x_StdPeriphDriver/src/apm32f10x_eint.c ****         }
 177              		.loc 1 82 13 is_stmt 1 view .LVU55
  82:Library/APM32F10x_StdPeriphDriver/src/apm32f10x_eint.c ****         }
 178              		.loc 1 82 24 is_stmt 0 view .LVU56
 179 0068 DA68     		ldr	r2, [r3, #12]
  82:Library/APM32F10x_StdPeriphDriver/src/apm32f10x_eint.c ****         }
 180              		.loc 1 82 37 view .LVU57
 181 006a 0168     		ldr	r1, [r0]
  82:Library/APM32F10x_StdPeriphDriver/src/apm32f10x_eint.c ****         }
ARM GAS  C:\Users\geehy\AppData\Local\Temp\ccC4aZhN.s 			page 6


 182              		.loc 1 82 24 view .LVU58
 183 006c 0A43     		orrs	r2, r2, r1
 184 006e DA60     		str	r2, [r3, #12]
 185 0070 F3E7     		b	.L4
 186              	.LVL6:
 187              	.L5:
 188              	.LCFI3:
 189              		.cfi_def_cfa_offset 0
 190              		.cfi_restore 4
  94:Library/APM32F10x_StdPeriphDriver/src/apm32f10x_eint.c **** 
 191              		.loc 1 94 9 is_stmt 1 view .LVU59
  94:Library/APM32F10x_StdPeriphDriver/src/apm32f10x_eint.c **** 
 192              		.loc 1 94 27 is_stmt 0 view .LVU60
 193 0072 0379     		ldrb	r3, [r0, #4]	@ zero_extendqisi2
  94:Library/APM32F10x_StdPeriphDriver/src/apm32f10x_eint.c **** 
 194              		.loc 1 94 14 view .LVU61
 195 0074 03F18043 		add	r3, r3, #1073741824
 196 0078 03F58233 		add	r3, r3, #66560
 197              	.LVL7:
  96:Library/APM32F10x_StdPeriphDriver/src/apm32f10x_eint.c ****     }
 198              		.loc 1 96 9 is_stmt 1 view .LVU62
  96:Library/APM32F10x_StdPeriphDriver/src/apm32f10x_eint.c ****     }
 199              		.loc 1 96 34 is_stmt 0 view .LVU63
 200 007c 1A68     		ldr	r2, [r3]
  96:Library/APM32F10x_StdPeriphDriver/src/apm32f10x_eint.c ****     }
 201              		.loc 1 96 48 view .LVU64
 202 007e 0168     		ldr	r1, [r0]
  96:Library/APM32F10x_StdPeriphDriver/src/apm32f10x_eint.c ****     }
 203              		.loc 1 96 34 view .LVU65
 204 0080 22EA0102 		bic	r2, r2, r1
 205 0084 1A60     		str	r2, [r3]
 206 0086 7047     		bx	lr
 207              	.L14:
 208              		.align	2
 209              	.L13:
 210 0088 00040140 		.word	1073808384
 211              		.cfi_endproc
 212              	.LFE66:
 214              		.section	.text.EINT_ConfigStructInit,"ax",%progbits
 215              		.align	1
 216              		.global	EINT_ConfigStructInit
 217              		.syntax unified
 218              		.thumb
 219              		.thumb_func
 221              	EINT_ConfigStructInit:
 222              	.LVL8:
 223              	.LFB67:
  99:Library/APM32F10x_StdPeriphDriver/src/apm32f10x_eint.c **** 
 100:Library/APM32F10x_StdPeriphDriver/src/apm32f10x_eint.c **** /*!
 101:Library/APM32F10x_StdPeriphDriver/src/apm32f10x_eint.c ****  * @brief        Fills each EINT_Config_T member with its reset value.
 102:Library/APM32F10x_StdPeriphDriver/src/apm32f10x_eint.c ****  *
 103:Library/APM32F10x_StdPeriphDriver/src/apm32f10x_eint.c ****  * @param        eintConfig: pointer to a EINT_Config_T structure
 104:Library/APM32F10x_StdPeriphDriver/src/apm32f10x_eint.c ****  *
 105:Library/APM32F10x_StdPeriphDriver/src/apm32f10x_eint.c ****  * @retval       None
 106:Library/APM32F10x_StdPeriphDriver/src/apm32f10x_eint.c ****  */
 107:Library/APM32F10x_StdPeriphDriver/src/apm32f10x_eint.c **** void EINT_ConfigStructInit(EINT_Config_T* eintConfig)
 108:Library/APM32F10x_StdPeriphDriver/src/apm32f10x_eint.c **** {
ARM GAS  C:\Users\geehy\AppData\Local\Temp\ccC4aZhN.s 			page 7


 224              		.loc 1 108 1 is_stmt 1 view -0
 225              		.cfi_startproc
 226              		@ args = 0, pretend = 0, frame = 0
 227              		@ frame_needed = 0, uses_anonymous_args = 0
 228              		@ link register save eliminated.
 109:Library/APM32F10x_StdPeriphDriver/src/apm32f10x_eint.c ****     eintConfig->line = EINT_LINENONE;
 229              		.loc 1 109 5 view .LVU67
 230              		.loc 1 109 22 is_stmt 0 view .LVU68
 231 0000 0023     		movs	r3, #0
 232 0002 0360     		str	r3, [r0]
 110:Library/APM32F10x_StdPeriphDriver/src/apm32f10x_eint.c ****     eintConfig->mode = EINT_MODE_INTERRUPT;
 233              		.loc 1 110 5 is_stmt 1 view .LVU69
 234              		.loc 1 110 22 is_stmt 0 view .LVU70
 235 0004 0371     		strb	r3, [r0, #4]
 111:Library/APM32F10x_StdPeriphDriver/src/apm32f10x_eint.c ****     eintConfig->trigger = EINT_TRIGGER_FALLING;
 236              		.loc 1 111 5 is_stmt 1 view .LVU71
 237              		.loc 1 111 25 is_stmt 0 view .LVU72
 238 0006 0C22     		movs	r2, #12
 239 0008 4271     		strb	r2, [r0, #5]
 112:Library/APM32F10x_StdPeriphDriver/src/apm32f10x_eint.c ****     eintConfig->lineCmd = DISABLE;
 240              		.loc 1 112 5 is_stmt 1 view .LVU73
 241              		.loc 1 112 25 is_stmt 0 view .LVU74
 242 000a 8371     		strb	r3, [r0, #6]
 113:Library/APM32F10x_StdPeriphDriver/src/apm32f10x_eint.c **** }
 243              		.loc 1 113 1 view .LVU75
 244 000c 7047     		bx	lr
 245              		.cfi_endproc
 246              	.LFE67:
 248              		.section	.text.EINT_SelectSWInterrupt,"ax",%progbits
 249              		.align	1
 250              		.global	EINT_SelectSWInterrupt
 251              		.syntax unified
 252              		.thumb
 253              		.thumb_func
 255              	EINT_SelectSWInterrupt:
 256              	.LVL9:
 257              	.LFB68:
 114:Library/APM32F10x_StdPeriphDriver/src/apm32f10x_eint.c **** 
 115:Library/APM32F10x_StdPeriphDriver/src/apm32f10x_eint.c **** /*!
 116:Library/APM32F10x_StdPeriphDriver/src/apm32f10x_eint.c ****  * @brief    Select Software interrupt on EINT line
 117:Library/APM32F10x_StdPeriphDriver/src/apm32f10x_eint.c ****  *
 118:Library/APM32F10x_StdPeriphDriver/src/apm32f10x_eint.c ****  * @param    line: specifies the EINT lines.
 119:Library/APM32F10x_StdPeriphDriver/src/apm32f10x_eint.c ****  *                 This parameter can be any combination of EINT_LINE_T(can be from 0 to 18)
 120:Library/APM32F10x_StdPeriphDriver/src/apm32f10x_eint.c ****  *
 121:Library/APM32F10x_StdPeriphDriver/src/apm32f10x_eint.c ****  * @retval   None
 122:Library/APM32F10x_StdPeriphDriver/src/apm32f10x_eint.c ****  */
 123:Library/APM32F10x_StdPeriphDriver/src/apm32f10x_eint.c **** void EINT_SelectSWInterrupt(uint32_t line)
 124:Library/APM32F10x_StdPeriphDriver/src/apm32f10x_eint.c **** {
 258              		.loc 1 124 1 is_stmt 1 view -0
 259              		.cfi_startproc
 260              		@ args = 0, pretend = 0, frame = 0
 261              		@ frame_needed = 0, uses_anonymous_args = 0
 262              		@ link register save eliminated.
 125:Library/APM32F10x_StdPeriphDriver/src/apm32f10x_eint.c ****     EINT->SWINTE |= line;
 263              		.loc 1 125 5 view .LVU77
 264              		.loc 1 125 18 is_stmt 0 view .LVU78
 265 0000 024A     		ldr	r2, .L17
ARM GAS  C:\Users\geehy\AppData\Local\Temp\ccC4aZhN.s 			page 8


 266 0002 1369     		ldr	r3, [r2, #16]
 267 0004 0343     		orrs	r3, r3, r0
 268 0006 1361     		str	r3, [r2, #16]
 126:Library/APM32F10x_StdPeriphDriver/src/apm32f10x_eint.c **** }
 269              		.loc 1 126 1 view .LVU79
 270 0008 7047     		bx	lr
 271              	.L18:
 272 000a 00BF     		.align	2
 273              	.L17:
 274 000c 00040140 		.word	1073808384
 275              		.cfi_endproc
 276              	.LFE68:
 278              		.section	.text.EINT_ReadStatusFlag,"ax",%progbits
 279              		.align	1
 280              		.global	EINT_ReadStatusFlag
 281              		.syntax unified
 282              		.thumb
 283              		.thumb_func
 285              	EINT_ReadStatusFlag:
 286              	.LVL10:
 287              	.LFB69:
 127:Library/APM32F10x_StdPeriphDriver/src/apm32f10x_eint.c **** 
 128:Library/APM32F10x_StdPeriphDriver/src/apm32f10x_eint.c **** /*!
 129:Library/APM32F10x_StdPeriphDriver/src/apm32f10x_eint.c ****  * @brief        Read the specified EINT_Line flag
 130:Library/APM32F10x_StdPeriphDriver/src/apm32f10x_eint.c ****  *
 131:Library/APM32F10x_StdPeriphDriver/src/apm32f10x_eint.c ****  * @param        line: Select the EINT_Line.
 132:Library/APM32F10x_StdPeriphDriver/src/apm32f10x_eint.c ****  *                     This parameter can be one of EINT_LINE_T(can be from 0 to 18)
 133:Library/APM32F10x_StdPeriphDriver/src/apm32f10x_eint.c ****  *
 134:Library/APM32F10x_StdPeriphDriver/src/apm32f10x_eint.c ****  * @retval       status: The new state of flag (SET or RESET)
 135:Library/APM32F10x_StdPeriphDriver/src/apm32f10x_eint.c ****  */
 136:Library/APM32F10x_StdPeriphDriver/src/apm32f10x_eint.c **** uint8_t EINT_ReadStatusFlag(EINT_LINE_T line)
 137:Library/APM32F10x_StdPeriphDriver/src/apm32f10x_eint.c **** {
 288              		.loc 1 137 1 is_stmt 1 view -0
 289              		.cfi_startproc
 290              		@ args = 0, pretend = 0, frame = 0
 291              		@ frame_needed = 0, uses_anonymous_args = 0
 292              		@ link register save eliminated.
 138:Library/APM32F10x_StdPeriphDriver/src/apm32f10x_eint.c ****     uint8_t status = RESET;
 293              		.loc 1 138 5 view .LVU81
 139:Library/APM32F10x_StdPeriphDriver/src/apm32f10x_eint.c **** 
 140:Library/APM32F10x_StdPeriphDriver/src/apm32f10x_eint.c ****     if((EINT->IPEND & line) != (uint32_t)RESET)
 294              		.loc 1 140 5 view .LVU82
 295              		.loc 1 140 13 is_stmt 0 view .LVU83
 296 0000 034B     		ldr	r3, .L22
 297 0002 5B69     		ldr	r3, [r3, #20]
 298              		.loc 1 140 7 view .LVU84
 299 0004 0342     		tst	r3, r0
 300 0006 01D0     		beq	.L21
 141:Library/APM32F10x_StdPeriphDriver/src/apm32f10x_eint.c ****     {
 142:Library/APM32F10x_StdPeriphDriver/src/apm32f10x_eint.c ****         status = SET;
 301              		.loc 1 142 16 view .LVU85
 302 0008 0120     		movs	r0, #1
 303              	.LVL11:
 304              		.loc 1 142 16 view .LVU86
 305 000a 7047     		bx	lr
 306              	.LVL12:
 307              	.L21:
ARM GAS  C:\Users\geehy\AppData\Local\Temp\ccC4aZhN.s 			page 9


 143:Library/APM32F10x_StdPeriphDriver/src/apm32f10x_eint.c ****     }
 144:Library/APM32F10x_StdPeriphDriver/src/apm32f10x_eint.c ****     else
 145:Library/APM32F10x_StdPeriphDriver/src/apm32f10x_eint.c ****     {
 146:Library/APM32F10x_StdPeriphDriver/src/apm32f10x_eint.c ****         status = RESET;
 308              		.loc 1 146 16 view .LVU87
 309 000c 0020     		movs	r0, #0
 310              	.LVL13:
 147:Library/APM32F10x_StdPeriphDriver/src/apm32f10x_eint.c ****     }
 148:Library/APM32F10x_StdPeriphDriver/src/apm32f10x_eint.c ****     return status;
 311              		.loc 1 148 5 is_stmt 1 view .LVU88
 149:Library/APM32F10x_StdPeriphDriver/src/apm32f10x_eint.c **** }
 312              		.loc 1 149 1 is_stmt 0 view .LVU89
 313 000e 7047     		bx	lr
 314              	.L23:
 315              		.align	2
 316              	.L22:
 317 0010 00040140 		.word	1073808384
 318              		.cfi_endproc
 319              	.LFE69:
 321              		.section	.text.EINT_ClearStatusFlag,"ax",%progbits
 322              		.align	1
 323              		.global	EINT_ClearStatusFlag
 324              		.syntax unified
 325              		.thumb
 326              		.thumb_func
 328              	EINT_ClearStatusFlag:
 329              	.LVL14:
 330              	.LFB70:
 150:Library/APM32F10x_StdPeriphDriver/src/apm32f10x_eint.c **** 
 151:Library/APM32F10x_StdPeriphDriver/src/apm32f10x_eint.c **** /*!
 152:Library/APM32F10x_StdPeriphDriver/src/apm32f10x_eint.c ****  * @brief        Clears the EINT_Line pending bits
 153:Library/APM32F10x_StdPeriphDriver/src/apm32f10x_eint.c ****  *
 154:Library/APM32F10x_StdPeriphDriver/src/apm32f10x_eint.c ****  * @param        line: Select the EINT_Line.
 155:Library/APM32F10x_StdPeriphDriver/src/apm32f10x_eint.c ****  *                     This parameter can be any combination of EINT_LINE_T(can be from 0 to 18)
 156:Library/APM32F10x_StdPeriphDriver/src/apm32f10x_eint.c ****  *
 157:Library/APM32F10x_StdPeriphDriver/src/apm32f10x_eint.c ****  * @retval        None
 158:Library/APM32F10x_StdPeriphDriver/src/apm32f10x_eint.c ****  */
 159:Library/APM32F10x_StdPeriphDriver/src/apm32f10x_eint.c **** void EINT_ClearStatusFlag(uint32_t line)
 160:Library/APM32F10x_StdPeriphDriver/src/apm32f10x_eint.c **** {
 331              		.loc 1 160 1 is_stmt 1 view -0
 332              		.cfi_startproc
 333              		@ args = 0, pretend = 0, frame = 0
 334              		@ frame_needed = 0, uses_anonymous_args = 0
 335              		@ link register save eliminated.
 161:Library/APM32F10x_StdPeriphDriver/src/apm32f10x_eint.c ****     EINT->IPEND = line;
 336              		.loc 1 161 5 view .LVU91
 337              		.loc 1 161 17 is_stmt 0 view .LVU92
 338 0000 014B     		ldr	r3, .L25
 339 0002 5861     		str	r0, [r3, #20]
 162:Library/APM32F10x_StdPeriphDriver/src/apm32f10x_eint.c **** }
 340              		.loc 1 162 1 view .LVU93
 341 0004 7047     		bx	lr
 342              	.L26:
 343 0006 00BF     		.align	2
 344              	.L25:
 345 0008 00040140 		.word	1073808384
 346              		.cfi_endproc
ARM GAS  C:\Users\geehy\AppData\Local\Temp\ccC4aZhN.s 			page 10


 347              	.LFE70:
 349              		.section	.text.EINT_ReadIntFlag,"ax",%progbits
 350              		.align	1
 351              		.global	EINT_ReadIntFlag
 352              		.syntax unified
 353              		.thumb
 354              		.thumb_func
 356              	EINT_ReadIntFlag:
 357              	.LVL15:
 358              	.LFB71:
 163:Library/APM32F10x_StdPeriphDriver/src/apm32f10x_eint.c **** 
 164:Library/APM32F10x_StdPeriphDriver/src/apm32f10x_eint.c **** /*!
 165:Library/APM32F10x_StdPeriphDriver/src/apm32f10x_eint.c ****  * @brief        Read the specified EINT_Line Interrupt Flag.
 166:Library/APM32F10x_StdPeriphDriver/src/apm32f10x_eint.c ****  *
 167:Library/APM32F10x_StdPeriphDriver/src/apm32f10x_eint.c ****  * @param        line: Select the EINT_Line.
 168:Library/APM32F10x_StdPeriphDriver/src/apm32f10x_eint.c ****  *                     This parameter can be one of EINT_LINE_T(can be from 0 to 18)
 169:Library/APM32F10x_StdPeriphDriver/src/apm32f10x_eint.c ****  *
 170:Library/APM32F10x_StdPeriphDriver/src/apm32f10x_eint.c ****  * @retval        None
 171:Library/APM32F10x_StdPeriphDriver/src/apm32f10x_eint.c ****  */
 172:Library/APM32F10x_StdPeriphDriver/src/apm32f10x_eint.c **** uint8_t EINT_ReadIntFlag(EINT_LINE_T line)
 173:Library/APM32F10x_StdPeriphDriver/src/apm32f10x_eint.c **** {
 359              		.loc 1 173 1 is_stmt 1 view -0
 360              		.cfi_startproc
 361              		@ args = 0, pretend = 0, frame = 0
 362              		@ frame_needed = 0, uses_anonymous_args = 0
 363              		@ link register save eliminated.
 174:Library/APM32F10x_StdPeriphDriver/src/apm32f10x_eint.c ****     uint8_t status = RESET;
 364              		.loc 1 174 5 view .LVU95
 175:Library/APM32F10x_StdPeriphDriver/src/apm32f10x_eint.c ****     uint32_t enablestatus = 0;
 365              		.loc 1 175 5 view .LVU96
 176:Library/APM32F10x_StdPeriphDriver/src/apm32f10x_eint.c **** 
 177:Library/APM32F10x_StdPeriphDriver/src/apm32f10x_eint.c ****     enablestatus = EINT->IMASK & line;
 366              		.loc 1 177 5 view .LVU97
 367              		.loc 1 177 24 is_stmt 0 view .LVU98
 368 0000 064A     		ldr	r2, .L31
 369 0002 1368     		ldr	r3, [r2]
 370              		.loc 1 177 18 view .LVU99
 371 0004 0340     		ands	r3, r3, r0
 372              	.LVL16:
 178:Library/APM32F10x_StdPeriphDriver/src/apm32f10x_eint.c **** 
 179:Library/APM32F10x_StdPeriphDriver/src/apm32f10x_eint.c ****     if((EINT->IPEND & line) != ((uint32_t)RESET) && (enablestatus != (uint32_t)RESET))
 373              		.loc 1 179 5 is_stmt 1 view .LVU100
 374              		.loc 1 179 13 is_stmt 0 view .LVU101
 375 0006 5269     		ldr	r2, [r2, #20]
 376              		.loc 1 179 7 view .LVU102
 377 0008 0242     		tst	r2, r0
 378 000a 02D0     		beq	.L29
 379              		.loc 1 179 50 discriminator 1 view .LVU103
 380 000c 1BB9     		cbnz	r3, .L30
 180:Library/APM32F10x_StdPeriphDriver/src/apm32f10x_eint.c ****     {
 181:Library/APM32F10x_StdPeriphDriver/src/apm32f10x_eint.c ****         status = SET;
 182:Library/APM32F10x_StdPeriphDriver/src/apm32f10x_eint.c ****     }
 183:Library/APM32F10x_StdPeriphDriver/src/apm32f10x_eint.c ****     else
 184:Library/APM32F10x_StdPeriphDriver/src/apm32f10x_eint.c ****     {
 185:Library/APM32F10x_StdPeriphDriver/src/apm32f10x_eint.c ****         status = RESET;
 381              		.loc 1 185 16 view .LVU104
 382 000e 0020     		movs	r0, #0
ARM GAS  C:\Users\geehy\AppData\Local\Temp\ccC4aZhN.s 			page 11


 383              	.LVL17:
 384              		.loc 1 185 16 view .LVU105
 385 0010 7047     		bx	lr
 386              	.LVL18:
 387              	.L29:
 388              		.loc 1 185 16 view .LVU106
 389 0012 0020     		movs	r0, #0
 390              	.LVL19:
 391              		.loc 1 185 16 view .LVU107
 392 0014 7047     		bx	lr
 393              	.LVL20:
 394              	.L30:
 181:Library/APM32F10x_StdPeriphDriver/src/apm32f10x_eint.c ****     }
 395              		.loc 1 181 16 view .LVU108
 396 0016 0120     		movs	r0, #1
 397              	.LVL21:
 186:Library/APM32F10x_StdPeriphDriver/src/apm32f10x_eint.c ****     }
 187:Library/APM32F10x_StdPeriphDriver/src/apm32f10x_eint.c ****     return status;
 398              		.loc 1 187 5 is_stmt 1 view .LVU109
 188:Library/APM32F10x_StdPeriphDriver/src/apm32f10x_eint.c **** }
 399              		.loc 1 188 1 is_stmt 0 view .LVU110
 400 0018 7047     		bx	lr
 401              	.L32:
 402 001a 00BF     		.align	2
 403              	.L31:
 404 001c 00040140 		.word	1073808384
 405              		.cfi_endproc
 406              	.LFE71:
 408              		.section	.text.EINT_ClearIntFlag,"ax",%progbits
 409              		.align	1
 410              		.global	EINT_ClearIntFlag
 411              		.syntax unified
 412              		.thumb
 413              		.thumb_func
 415              	EINT_ClearIntFlag:
 416              	.LVL22:
 417              	.LFB72:
 189:Library/APM32F10x_StdPeriphDriver/src/apm32f10x_eint.c **** 
 190:Library/APM32F10x_StdPeriphDriver/src/apm32f10x_eint.c **** /*!
 191:Library/APM32F10x_StdPeriphDriver/src/apm32f10x_eint.c ****  * @brief        Clears the EINT_Line pending bits
 192:Library/APM32F10x_StdPeriphDriver/src/apm32f10x_eint.c ****  *
 193:Library/APM32F10x_StdPeriphDriver/src/apm32f10x_eint.c ****  * @param        line: Select the EINT_Line
 194:Library/APM32F10x_StdPeriphDriver/src/apm32f10x_eint.c ****  *                     This parameter can be any combination of EINT_LINE_T(can be from 0 to 18)
 195:Library/APM32F10x_StdPeriphDriver/src/apm32f10x_eint.c ****  *
 196:Library/APM32F10x_StdPeriphDriver/src/apm32f10x_eint.c ****  * @retval        None
 197:Library/APM32F10x_StdPeriphDriver/src/apm32f10x_eint.c ****  */
 198:Library/APM32F10x_StdPeriphDriver/src/apm32f10x_eint.c **** void EINT_ClearIntFlag(uint32_t line)
 199:Library/APM32F10x_StdPeriphDriver/src/apm32f10x_eint.c **** {
 418              		.loc 1 199 1 is_stmt 1 view -0
 419              		.cfi_startproc
 420              		@ args = 0, pretend = 0, frame = 0
 421              		@ frame_needed = 0, uses_anonymous_args = 0
 422              		@ link register save eliminated.
 200:Library/APM32F10x_StdPeriphDriver/src/apm32f10x_eint.c ****     EINT->IPEND = line;
 423              		.loc 1 200 5 view .LVU112
 424              		.loc 1 200 17 is_stmt 0 view .LVU113
 425 0000 014B     		ldr	r3, .L34
ARM GAS  C:\Users\geehy\AppData\Local\Temp\ccC4aZhN.s 			page 12


 426 0002 5861     		str	r0, [r3, #20]
 201:Library/APM32F10x_StdPeriphDriver/src/apm32f10x_eint.c **** }
 427              		.loc 1 201 1 view .LVU114
 428 0004 7047     		bx	lr
 429              	.L35:
 430 0006 00BF     		.align	2
 431              	.L34:
 432 0008 00040140 		.word	1073808384
 433              		.cfi_endproc
 434              	.LFE72:
 436              		.text
 437              	.Letext0:
 438              		.file 2 "d:\\program files (x86)\\gnu arm embedded toolchain\\10 2021.10\\arm-none-eabi\\include\\
 439              		.file 3 "d:\\program files (x86)\\gnu arm embedded toolchain\\10 2021.10\\arm-none-eabi\\include\\
 440              		.file 4 "Library/Device/Geehy/APM32F10x/Include/apm32f10x.h"
 441              		.file 5 "Library/APM32F10x_StdPeriphDriver/inc/apm32f10x_eint.h"
ARM GAS  C:\Users\geehy\AppData\Local\Temp\ccC4aZhN.s 			page 13

