ARM GAS  C:\Users\geehy\AppData\Local\Temp\ccn0PifZ.s 			page 1


   1              		.cpu cortex-m3
   2              		.arch armv7-m
   3              		.fpu softvfp
   4              		.eabi_attribute 20, 1
   5              		.eabi_attribute 21, 1
   6              		.eabi_attribute 23, 3
   7              		.eabi_attribute 24, 1
   8              		.eabi_attribute 25, 1
   9              		.eabi_attribute 26, 1
  10              		.eabi_attribute 30, 1
  11              		.eabi_attribute 34, 1
  12              		.eabi_attribute 18, 4
  13              		.file	"apm32f10x_iwdt.c"
  14              		.text
  15              	.Ltext0:
  16              		.cfi_sections	.debug_frame
  17              		.section	.text.IWDT_Enable,"ax",%progbits
  18              		.align	1
  19              		.global	IWDT_Enable
  20              		.syntax unified
  21              		.thumb
  22              		.thumb_func
  24              	IWDT_Enable:
  25              	.LFB65:
  26              		.file 1 "Library/APM32F10x_StdPeriphDriver/src/apm32f10x_iwdt.c"
   1:Library/APM32F10x_StdPeriphDriver/src/apm32f10x_iwdt.c **** /*!
   2:Library/APM32F10x_StdPeriphDriver/src/apm32f10x_iwdt.c ****  * @file        apm32f10x_iwdt.c
   3:Library/APM32F10x_StdPeriphDriver/src/apm32f10x_iwdt.c ****  *
   4:Library/APM32F10x_StdPeriphDriver/src/apm32f10x_iwdt.c ****  * @brief       This file provides all the IWDT firmware functions
   5:Library/APM32F10x_StdPeriphDriver/src/apm32f10x_iwdt.c ****  *
   6:Library/APM32F10x_StdPeriphDriver/src/apm32f10x_iwdt.c ****  * @version     V1.0.2
   7:Library/APM32F10x_StdPeriphDriver/src/apm32f10x_iwdt.c ****  *
   8:Library/APM32F10x_StdPeriphDriver/src/apm32f10x_iwdt.c ****  * @date        2022-01-05
   9:Library/APM32F10x_StdPeriphDriver/src/apm32f10x_iwdt.c ****  *
  10:Library/APM32F10x_StdPeriphDriver/src/apm32f10x_iwdt.c ****  * @attention
  11:Library/APM32F10x_StdPeriphDriver/src/apm32f10x_iwdt.c ****  *
  12:Library/APM32F10x_StdPeriphDriver/src/apm32f10x_iwdt.c ****  *  Copyright (C) 2020-2022 Geehy Semiconductor
  13:Library/APM32F10x_StdPeriphDriver/src/apm32f10x_iwdt.c ****  *
  14:Library/APM32F10x_StdPeriphDriver/src/apm32f10x_iwdt.c ****  *  You may not use this file except in compliance with the
  15:Library/APM32F10x_StdPeriphDriver/src/apm32f10x_iwdt.c ****  *  GEEHY COPYRIGHT NOTICE (GEEHY SOFTWARE PACKAGE LICENSE).
  16:Library/APM32F10x_StdPeriphDriver/src/apm32f10x_iwdt.c ****  *
  17:Library/APM32F10x_StdPeriphDriver/src/apm32f10x_iwdt.c ****  *  The program is only for reference, which is distributed in the hope
  18:Library/APM32F10x_StdPeriphDriver/src/apm32f10x_iwdt.c ****  *  that it will be usefull and instructional for customers to develop
  19:Library/APM32F10x_StdPeriphDriver/src/apm32f10x_iwdt.c ****  *  their software. Unless required by applicable law or agreed to in
  20:Library/APM32F10x_StdPeriphDriver/src/apm32f10x_iwdt.c ****  *  writing, the program is distributed on an "AS IS" BASIS, WITHOUT
  21:Library/APM32F10x_StdPeriphDriver/src/apm32f10x_iwdt.c ****  *  ANY WARRANTY OR CONDITIONS OF ANY KIND, either express or implied.
  22:Library/APM32F10x_StdPeriphDriver/src/apm32f10x_iwdt.c ****  *  See the GEEHY SOFTWARE PACKAGE LICENSE for the governing permissions
  23:Library/APM32F10x_StdPeriphDriver/src/apm32f10x_iwdt.c ****  *  and limitations under the License.
  24:Library/APM32F10x_StdPeriphDriver/src/apm32f10x_iwdt.c ****  */
  25:Library/APM32F10x_StdPeriphDriver/src/apm32f10x_iwdt.c **** 
  26:Library/APM32F10x_StdPeriphDriver/src/apm32f10x_iwdt.c **** #include "apm32f10x_iwdt.h"
  27:Library/APM32F10x_StdPeriphDriver/src/apm32f10x_iwdt.c **** 
  28:Library/APM32F10x_StdPeriphDriver/src/apm32f10x_iwdt.c **** /** @addtogroup Peripherals_Library Standard Peripheral Library
  29:Library/APM32F10x_StdPeriphDriver/src/apm32f10x_iwdt.c ****   @{
  30:Library/APM32F10x_StdPeriphDriver/src/apm32f10x_iwdt.c **** */
  31:Library/APM32F10x_StdPeriphDriver/src/apm32f10x_iwdt.c **** 
  32:Library/APM32F10x_StdPeriphDriver/src/apm32f10x_iwdt.c **** /** @addtogroup IWDT_Driver IWDT Driver
ARM GAS  C:\Users\geehy\AppData\Local\Temp\ccn0PifZ.s 			page 2


  33:Library/APM32F10x_StdPeriphDriver/src/apm32f10x_iwdt.c ****   @{
  34:Library/APM32F10x_StdPeriphDriver/src/apm32f10x_iwdt.c **** */
  35:Library/APM32F10x_StdPeriphDriver/src/apm32f10x_iwdt.c **** 
  36:Library/APM32F10x_StdPeriphDriver/src/apm32f10x_iwdt.c **** /** @addtogroup IWDT_Fuctions Fuctions
  37:Library/APM32F10x_StdPeriphDriver/src/apm32f10x_iwdt.c ****   @{
  38:Library/APM32F10x_StdPeriphDriver/src/apm32f10x_iwdt.c **** */
  39:Library/APM32F10x_StdPeriphDriver/src/apm32f10x_iwdt.c **** 
  40:Library/APM32F10x_StdPeriphDriver/src/apm32f10x_iwdt.c **** /*!
  41:Library/APM32F10x_StdPeriphDriver/src/apm32f10x_iwdt.c ****  * @brief        Enable IWDT
  42:Library/APM32F10x_StdPeriphDriver/src/apm32f10x_iwdt.c ****  *
  43:Library/APM32F10x_StdPeriphDriver/src/apm32f10x_iwdt.c ****  * @param        None
  44:Library/APM32F10x_StdPeriphDriver/src/apm32f10x_iwdt.c ****  *
  45:Library/APM32F10x_StdPeriphDriver/src/apm32f10x_iwdt.c ****  * @retval       None
  46:Library/APM32F10x_StdPeriphDriver/src/apm32f10x_iwdt.c ****  */
  47:Library/APM32F10x_StdPeriphDriver/src/apm32f10x_iwdt.c **** void IWDT_Enable(void)
  48:Library/APM32F10x_StdPeriphDriver/src/apm32f10x_iwdt.c **** {
  27              		.loc 1 48 1 view -0
  28              		.cfi_startproc
  29              		@ args = 0, pretend = 0, frame = 0
  30              		@ frame_needed = 0, uses_anonymous_args = 0
  31              		@ link register save eliminated.
  49:Library/APM32F10x_StdPeriphDriver/src/apm32f10x_iwdt.c ****     IWDT->KEY = IWDT_KEYWORD_ENABLE;
  32              		.loc 1 49 5 view .LVU1
  33              		.loc 1 49 15 is_stmt 0 view .LVU2
  34 0000 024B     		ldr	r3, .L2
  35 0002 4CF6CC42 		movw	r2, #52428
  36 0006 1A60     		str	r2, [r3]
  50:Library/APM32F10x_StdPeriphDriver/src/apm32f10x_iwdt.c **** }
  37              		.loc 1 50 1 view .LVU3
  38 0008 7047     		bx	lr
  39              	.L3:
  40 000a 00BF     		.align	2
  41              	.L2:
  42 000c 00300040 		.word	1073754112
  43              		.cfi_endproc
  44              	.LFE65:
  46              		.section	.text.IWDT_Refresh,"ax",%progbits
  47              		.align	1
  48              		.global	IWDT_Refresh
  49              		.syntax unified
  50              		.thumb
  51              		.thumb_func
  53              	IWDT_Refresh:
  54              	.LFB66:
  51:Library/APM32F10x_StdPeriphDriver/src/apm32f10x_iwdt.c **** 
  52:Library/APM32F10x_StdPeriphDriver/src/apm32f10x_iwdt.c **** /*!
  53:Library/APM32F10x_StdPeriphDriver/src/apm32f10x_iwdt.c ****  * @brief        Reload the IWDT counter with value
  54:Library/APM32F10x_StdPeriphDriver/src/apm32f10x_iwdt.c ****  *
  55:Library/APM32F10x_StdPeriphDriver/src/apm32f10x_iwdt.c ****  * @param        None
  56:Library/APM32F10x_StdPeriphDriver/src/apm32f10x_iwdt.c ****  *
  57:Library/APM32F10x_StdPeriphDriver/src/apm32f10x_iwdt.c ****  * @retval       None
  58:Library/APM32F10x_StdPeriphDriver/src/apm32f10x_iwdt.c ****  */
  59:Library/APM32F10x_StdPeriphDriver/src/apm32f10x_iwdt.c **** void IWDT_Refresh(void)
  60:Library/APM32F10x_StdPeriphDriver/src/apm32f10x_iwdt.c **** {
  55              		.loc 1 60 1 is_stmt 1 view -0
  56              		.cfi_startproc
  57              		@ args = 0, pretend = 0, frame = 0
ARM GAS  C:\Users\geehy\AppData\Local\Temp\ccn0PifZ.s 			page 3


  58              		@ frame_needed = 0, uses_anonymous_args = 0
  59              		@ link register save eliminated.
  61:Library/APM32F10x_StdPeriphDriver/src/apm32f10x_iwdt.c ****     IWDT->KEY = IWDT_KEYWORD_RELOAD;
  60              		.loc 1 61 5 view .LVU5
  61              		.loc 1 61 15 is_stmt 0 view .LVU6
  62 0000 024B     		ldr	r3, .L5
  63 0002 4AF6AA22 		movw	r2, #43690
  64 0006 1A60     		str	r2, [r3]
  62:Library/APM32F10x_StdPeriphDriver/src/apm32f10x_iwdt.c **** }
  65              		.loc 1 62 1 view .LVU7
  66 0008 7047     		bx	lr
  67              	.L6:
  68 000a 00BF     		.align	2
  69              	.L5:
  70 000c 00300040 		.word	1073754112
  71              		.cfi_endproc
  72              	.LFE66:
  74              		.section	.text.IWDT_ConfigReload,"ax",%progbits
  75              		.align	1
  76              		.global	IWDT_ConfigReload
  77              		.syntax unified
  78              		.thumb
  79              		.thumb_func
  81              	IWDT_ConfigReload:
  82              	.LVL0:
  83              	.LFB67:
  63:Library/APM32F10x_StdPeriphDriver/src/apm32f10x_iwdt.c **** 
  64:Library/APM32F10x_StdPeriphDriver/src/apm32f10x_iwdt.c **** /*!
  65:Library/APM32F10x_StdPeriphDriver/src/apm32f10x_iwdt.c ****  * @brief        Set IWDT count reload values
  66:Library/APM32F10x_StdPeriphDriver/src/apm32f10x_iwdt.c ****  *
  67:Library/APM32F10x_StdPeriphDriver/src/apm32f10x_iwdt.c ****  * @param        reload: IWDT count reload values
  68:Library/APM32F10x_StdPeriphDriver/src/apm32f10x_iwdt.c ****  *
  69:Library/APM32F10x_StdPeriphDriver/src/apm32f10x_iwdt.c ****  * @retval       None
  70:Library/APM32F10x_StdPeriphDriver/src/apm32f10x_iwdt.c ****  */
  71:Library/APM32F10x_StdPeriphDriver/src/apm32f10x_iwdt.c **** void IWDT_ConfigReload(uint16_t reload)
  72:Library/APM32F10x_StdPeriphDriver/src/apm32f10x_iwdt.c **** {
  84              		.loc 1 72 1 is_stmt 1 view -0
  85              		.cfi_startproc
  86              		@ args = 0, pretend = 0, frame = 0
  87              		@ frame_needed = 0, uses_anonymous_args = 0
  88              		@ link register save eliminated.
  73:Library/APM32F10x_StdPeriphDriver/src/apm32f10x_iwdt.c ****     IWDT->CNTRLD = reload;
  89              		.loc 1 73 5 view .LVU9
  90              		.loc 1 73 18 is_stmt 0 view .LVU10
  91 0000 014B     		ldr	r3, .L8
  92 0002 9860     		str	r0, [r3, #8]
  74:Library/APM32F10x_StdPeriphDriver/src/apm32f10x_iwdt.c **** }
  93              		.loc 1 74 1 view .LVU11
  94 0004 7047     		bx	lr
  95              	.L9:
  96 0006 00BF     		.align	2
  97              	.L8:
  98 0008 00300040 		.word	1073754112
  99              		.cfi_endproc
 100              	.LFE67:
 102              		.section	.text.IWDT_EnableWriteAccess,"ax",%progbits
 103              		.align	1
ARM GAS  C:\Users\geehy\AppData\Local\Temp\ccn0PifZ.s 			page 4


 104              		.global	IWDT_EnableWriteAccess
 105              		.syntax unified
 106              		.thumb
 107              		.thumb_func
 109              	IWDT_EnableWriteAccess:
 110              	.LFB68:
  75:Library/APM32F10x_StdPeriphDriver/src/apm32f10x_iwdt.c **** 
  76:Library/APM32F10x_StdPeriphDriver/src/apm32f10x_iwdt.c **** /*!
  77:Library/APM32F10x_StdPeriphDriver/src/apm32f10x_iwdt.c ****  * @brief        Enable the IWDT write access
  78:Library/APM32F10x_StdPeriphDriver/src/apm32f10x_iwdt.c ****  *
  79:Library/APM32F10x_StdPeriphDriver/src/apm32f10x_iwdt.c ****  * @param        None
  80:Library/APM32F10x_StdPeriphDriver/src/apm32f10x_iwdt.c ****  *
  81:Library/APM32F10x_StdPeriphDriver/src/apm32f10x_iwdt.c ****  * @retval       None
  82:Library/APM32F10x_StdPeriphDriver/src/apm32f10x_iwdt.c ****  */
  83:Library/APM32F10x_StdPeriphDriver/src/apm32f10x_iwdt.c **** void IWDT_EnableWriteAccess(void)
  84:Library/APM32F10x_StdPeriphDriver/src/apm32f10x_iwdt.c **** {
 111              		.loc 1 84 1 is_stmt 1 view -0
 112              		.cfi_startproc
 113              		@ args = 0, pretend = 0, frame = 0
 114              		@ frame_needed = 0, uses_anonymous_args = 0
 115              		@ link register save eliminated.
  85:Library/APM32F10x_StdPeriphDriver/src/apm32f10x_iwdt.c ****     IWDT->KEY_B.KEY = IWDT_WRITEACCESS_ENABLE;
 116              		.loc 1 85 5 view .LVU13
 117              		.loc 1 85 21 is_stmt 0 view .LVU14
 118 0000 034B     		ldr	r3, .L11
 119 0002 1A68     		ldr	r2, [r3]
 120 0004 45F25551 		movw	r1, #21845
 121 0008 61F30F02 		bfi	r2, r1, #0, #16
 122 000c 1A60     		str	r2, [r3]
  86:Library/APM32F10x_StdPeriphDriver/src/apm32f10x_iwdt.c **** }
 123              		.loc 1 86 1 view .LVU15
 124 000e 7047     		bx	lr
 125              	.L12:
 126              		.align	2
 127              	.L11:
 128 0010 00300040 		.word	1073754112
 129              		.cfi_endproc
 130              	.LFE68:
 132              		.section	.text.IWDT_DisableWriteAccess,"ax",%progbits
 133              		.align	1
 134              		.global	IWDT_DisableWriteAccess
 135              		.syntax unified
 136              		.thumb
 137              		.thumb_func
 139              	IWDT_DisableWriteAccess:
 140              	.LFB69:
  87:Library/APM32F10x_StdPeriphDriver/src/apm32f10x_iwdt.c **** 
  88:Library/APM32F10x_StdPeriphDriver/src/apm32f10x_iwdt.c **** /*!
  89:Library/APM32F10x_StdPeriphDriver/src/apm32f10x_iwdt.c ****  * @brief        Disable the IWDT write access
  90:Library/APM32F10x_StdPeriphDriver/src/apm32f10x_iwdt.c ****  *
  91:Library/APM32F10x_StdPeriphDriver/src/apm32f10x_iwdt.c ****  * @param        None
  92:Library/APM32F10x_StdPeriphDriver/src/apm32f10x_iwdt.c ****  *
  93:Library/APM32F10x_StdPeriphDriver/src/apm32f10x_iwdt.c ****  * @retval       None
  94:Library/APM32F10x_StdPeriphDriver/src/apm32f10x_iwdt.c ****  */
  95:Library/APM32F10x_StdPeriphDriver/src/apm32f10x_iwdt.c **** void IWDT_DisableWriteAccess(void)
  96:Library/APM32F10x_StdPeriphDriver/src/apm32f10x_iwdt.c **** {
 141              		.loc 1 96 1 is_stmt 1 view -0
ARM GAS  C:\Users\geehy\AppData\Local\Temp\ccn0PifZ.s 			page 5


 142              		.cfi_startproc
 143              		@ args = 0, pretend = 0, frame = 0
 144              		@ frame_needed = 0, uses_anonymous_args = 0
 145              		@ link register save eliminated.
  97:Library/APM32F10x_StdPeriphDriver/src/apm32f10x_iwdt.c ****     IWDT->KEY_B.KEY = IWDT_WRITEACCESS_DISABLE;
 146              		.loc 1 97 5 view .LVU17
 147              		.loc 1 97 21 is_stmt 0 view .LVU18
 148 0000 024B     		ldr	r3, .L14
 149 0002 1A68     		ldr	r2, [r3]
 150 0004 6FF30F02 		bfc	r2, #0, #16
 151 0008 1A60     		str	r2, [r3]
  98:Library/APM32F10x_StdPeriphDriver/src/apm32f10x_iwdt.c **** }
 152              		.loc 1 98 1 view .LVU19
 153 000a 7047     		bx	lr
 154              	.L15:
 155              		.align	2
 156              	.L14:
 157 000c 00300040 		.word	1073754112
 158              		.cfi_endproc
 159              	.LFE69:
 161              		.section	.text.IWDT_ConfigDivider,"ax",%progbits
 162              		.align	1
 163              		.global	IWDT_ConfigDivider
 164              		.syntax unified
 165              		.thumb
 166              		.thumb_func
 168              	IWDT_ConfigDivider:
 169              	.LVL1:
 170              	.LFB70:
  99:Library/APM32F10x_StdPeriphDriver/src/apm32f10x_iwdt.c **** 
 100:Library/APM32F10x_StdPeriphDriver/src/apm32f10x_iwdt.c **** /*!
 101:Library/APM32F10x_StdPeriphDriver/src/apm32f10x_iwdt.c ****  * @brief        Set IWDT frequency divider values
 102:Library/APM32F10x_StdPeriphDriver/src/apm32f10x_iwdt.c ****  *
 103:Library/APM32F10x_StdPeriphDriver/src/apm32f10x_iwdt.c ****  * @param        div: IWDT frequency divider values
 104:Library/APM32F10x_StdPeriphDriver/src/apm32f10x_iwdt.c ****  *                    This parameter can be one of the following values:
 105:Library/APM32F10x_StdPeriphDriver/src/apm32f10x_iwdt.c ****  *                    @arg IWDT_DIVIDER_4  : prescaler divider equal to 4
 106:Library/APM32F10x_StdPeriphDriver/src/apm32f10x_iwdt.c ****  *                    @arg IWDT_DIVIDER_8  : prescaler divider equal to 8
 107:Library/APM32F10x_StdPeriphDriver/src/apm32f10x_iwdt.c ****  *                    @arg IWDT_DIVIDER_16 : prescaler divider equal to 16
 108:Library/APM32F10x_StdPeriphDriver/src/apm32f10x_iwdt.c ****  *                    @arg IWDT_DIVIDER_32 : prescaler divider equal to 32
 109:Library/APM32F10x_StdPeriphDriver/src/apm32f10x_iwdt.c ****  *                    @arg IWDT_DIVIDER_64 : prescaler divider equal to 64
 110:Library/APM32F10x_StdPeriphDriver/src/apm32f10x_iwdt.c ****  *                    @arg IWDT_DIVIDER_128: prescaler divider equal to 128
 111:Library/APM32F10x_StdPeriphDriver/src/apm32f10x_iwdt.c ****  *                    @arg IWDT_DIVIDER_256: prescaler divider equal to 256
 112:Library/APM32F10x_StdPeriphDriver/src/apm32f10x_iwdt.c ****  *
 113:Library/APM32F10x_StdPeriphDriver/src/apm32f10x_iwdt.c ****  * @retval       None
 114:Library/APM32F10x_StdPeriphDriver/src/apm32f10x_iwdt.c ****  */
 115:Library/APM32F10x_StdPeriphDriver/src/apm32f10x_iwdt.c **** void IWDT_ConfigDivider(uint8_t div)
 116:Library/APM32F10x_StdPeriphDriver/src/apm32f10x_iwdt.c **** {
 171              		.loc 1 116 1 is_stmt 1 view -0
 172              		.cfi_startproc
 173              		@ args = 0, pretend = 0, frame = 0
 174              		@ frame_needed = 0, uses_anonymous_args = 0
 175              		@ link register save eliminated.
 117:Library/APM32F10x_StdPeriphDriver/src/apm32f10x_iwdt.c ****     IWDT->PSC = div;
 176              		.loc 1 117 5 view .LVU21
 177              		.loc 1 117 15 is_stmt 0 view .LVU22
 178 0000 014B     		ldr	r3, .L17
 179 0002 5860     		str	r0, [r3, #4]
ARM GAS  C:\Users\geehy\AppData\Local\Temp\ccn0PifZ.s 			page 6


 118:Library/APM32F10x_StdPeriphDriver/src/apm32f10x_iwdt.c **** }
 180              		.loc 1 118 1 view .LVU23
 181 0004 7047     		bx	lr
 182              	.L18:
 183 0006 00BF     		.align	2
 184              	.L17:
 185 0008 00300040 		.word	1073754112
 186              		.cfi_endproc
 187              	.LFE70:
 189              		.section	.text.IWDT_ReadStatusFlag,"ax",%progbits
 190              		.align	1
 191              		.global	IWDT_ReadStatusFlag
 192              		.syntax unified
 193              		.thumb
 194              		.thumb_func
 196              	IWDT_ReadStatusFlag:
 197              	.LVL2:
 198              	.LFB71:
 119:Library/APM32F10x_StdPeriphDriver/src/apm32f10x_iwdt.c **** 
 120:Library/APM32F10x_StdPeriphDriver/src/apm32f10x_iwdt.c **** /*!
 121:Library/APM32F10x_StdPeriphDriver/src/apm32f10x_iwdt.c ****  * @brief        Read the specified IWDT flag
 122:Library/APM32F10x_StdPeriphDriver/src/apm32f10x_iwdt.c ****  *
 123:Library/APM32F10x_StdPeriphDriver/src/apm32f10x_iwdt.c ****  * @param        flag: specifies the flag to read
 124:Library/APM32F10x_StdPeriphDriver/src/apm32f10x_iwdt.c ****  *                     This parameter can be one of the following values:
 125:Library/APM32F10x_StdPeriphDriver/src/apm32f10x_iwdt.c ****  *                     @arg IWDT_FLAG_PSCU : Watchdog Prescaler Factor Update flag
 126:Library/APM32F10x_StdPeriphDriver/src/apm32f10x_iwdt.c ****  *                     @arg IWDT_FLAG_CNTU : Watchdog Counter Reload Value Update flag
 127:Library/APM32F10x_StdPeriphDriver/src/apm32f10x_iwdt.c ****  *
 128:Library/APM32F10x_StdPeriphDriver/src/apm32f10x_iwdt.c ****  * @retval       status of IWDT_FLAG (SET or RESET)
 129:Library/APM32F10x_StdPeriphDriver/src/apm32f10x_iwdt.c ****  *
 130:Library/APM32F10x_StdPeriphDriver/src/apm32f10x_iwdt.c ****  */
 131:Library/APM32F10x_StdPeriphDriver/src/apm32f10x_iwdt.c **** uint8_t IWDT_ReadStatusFlag(uint16_t flag)
 132:Library/APM32F10x_StdPeriphDriver/src/apm32f10x_iwdt.c **** {
 199              		.loc 1 132 1 is_stmt 1 view -0
 200              		.cfi_startproc
 201              		@ args = 0, pretend = 0, frame = 0
 202              		@ frame_needed = 0, uses_anonymous_args = 0
 203              		@ link register save eliminated.
 133:Library/APM32F10x_StdPeriphDriver/src/apm32f10x_iwdt.c ****     uint8_t bitStatus = RESET;
 204              		.loc 1 133 5 view .LVU25
 134:Library/APM32F10x_StdPeriphDriver/src/apm32f10x_iwdt.c **** 
 135:Library/APM32F10x_StdPeriphDriver/src/apm32f10x_iwdt.c ****     if((IWDT->STS & flag) != (uint32_t)RESET)
 205              		.loc 1 135 5 view .LVU26
 206              		.loc 1 135 13 is_stmt 0 view .LVU27
 207 0000 034B     		ldr	r3, .L22
 208 0002 DB68     		ldr	r3, [r3, #12]
 209              		.loc 1 135 7 view .LVU28
 210 0004 1842     		tst	r0, r3
 211 0006 01D0     		beq	.L21
 136:Library/APM32F10x_StdPeriphDriver/src/apm32f10x_iwdt.c ****     {
 137:Library/APM32F10x_StdPeriphDriver/src/apm32f10x_iwdt.c ****         bitStatus = SET;
 212              		.loc 1 137 19 view .LVU29
 213 0008 0120     		movs	r0, #1
 214              	.LVL3:
 215              		.loc 1 137 19 view .LVU30
 216 000a 7047     		bx	lr
 217              	.LVL4:
 218              	.L21:
ARM GAS  C:\Users\geehy\AppData\Local\Temp\ccn0PifZ.s 			page 7


 138:Library/APM32F10x_StdPeriphDriver/src/apm32f10x_iwdt.c ****     }
 139:Library/APM32F10x_StdPeriphDriver/src/apm32f10x_iwdt.c ****     else
 140:Library/APM32F10x_StdPeriphDriver/src/apm32f10x_iwdt.c ****     {
 141:Library/APM32F10x_StdPeriphDriver/src/apm32f10x_iwdt.c ****         bitStatus = RESET;
 219              		.loc 1 141 19 view .LVU31
 220 000c 0020     		movs	r0, #0
 221              	.LVL5:
 142:Library/APM32F10x_StdPeriphDriver/src/apm32f10x_iwdt.c ****     }
 143:Library/APM32F10x_StdPeriphDriver/src/apm32f10x_iwdt.c ****     return bitStatus;
 222              		.loc 1 143 5 is_stmt 1 view .LVU32
 144:Library/APM32F10x_StdPeriphDriver/src/apm32f10x_iwdt.c **** }
 223              		.loc 1 144 1 is_stmt 0 view .LVU33
 224 000e 7047     		bx	lr
 225              	.L23:
 226              		.align	2
 227              	.L22:
 228 0010 00300040 		.word	1073754112
 229              		.cfi_endproc
 230              	.LFE71:
 232              		.text
 233              	.Letext0:
 234              		.file 2 "d:\\program files (x86)\\gnu arm embedded toolchain\\10 2021.10\\arm-none-eabi\\include\\
 235              		.file 3 "d:\\program files (x86)\\gnu arm embedded toolchain\\10 2021.10\\arm-none-eabi\\include\\
 236              		.file 4 "Library/Device/Geehy/APM32F10x/Include/apm32f10x.h"
 237              		.file 5 "Library/APM32F10x_StdPeriphDriver/inc/apm32f10x_iwdt.h"
ARM GAS  C:\Users\geehy\AppData\Local\Temp\ccn0PifZ.s 			page 8

